(dp1
S'output'
p2
S"<type 'exceptions.NameError'> name 'nombre' is not defined"
p3
sS'layer'
p4
S'/home/vero/Escritorio/SIGPIE/applications/SIGPIE/views/default/postularse.html'
p5
sS'code'
p6
S'response.write(\'<!DOCTYPE html>\\n<html>\\n<head>\\n\\n\', escape=False)\nresponse.write(\'\\n  <meta charset="utf-8" />\\n  <meta http-equiv="X-UA-Compatible" content="IE=edge">\\n  <meta name="viewport" content="width=device-width, initial-scale=1">\\n  <link rel="shortcut icon" href="../static/css/images/favicon_0.ico" type="image/vnd.microsoft.icon" />\\n  <meta http-equiv="X-UA-Compatible" content="IE=edge,chrome=1" />\\n    <title>BIENVENIDO A LA  DRIC-USB | Direcci\\xc3\\xb3n de Relaciones Internacionales</title>\\n\\n  <meta name="description" content="">\\n  <meta name="author" content="">\\n\\n\', escape=False)\nresponse.write(\'\\n\\n\', escape=False)\nresponse.write(\'\\n  <link href="\', escape=False)\nresponse.write(URL(\'static\', \'css/bootstrap.min.css\'))\nresponse.write(\'" rel="stylesheet">\\n  <link href="\', escape=False)\nresponse.write(URL(\'static\', \'css/navbarUser.css\'))\nresponse.write(\'" rel="stylesheet">\\n  <!--link href="\', escape=False)\nresponse.write(URL(\'static\', \'css/form.css\'))\nresponse.write(\'" rel="stylesheet"-->\\n\\n\', escape=False)\nresponse.write(\'\\n</head>\\n\\n<body>\\n  \', escape=False)\nresponse.write(\'\\n\\n  <div class="row">\\n    <div class="col-lg-1"></div>\\n    <div class="col-lg-10">\\n      <div>\\n        <img id="header" class="img-responsive" src="../static/css/images/fotoHeader.png">\\n      </div>\\n\\n\\n      <nav class="navbar navbar-default">\\n        <div class="container-fluid">\\n          <div class="navbar-header">\\n            <button type="button" class="navbar-toggle collapsed" data-toggle="collapse" data-target="#navbar" aria-expanded="false" aria-controls="navbar">\\n              <span class="sr-only">Toggle navigation</span>\\n              <span class="icon-bar"></span>\\n              <span class="icon-bar"></span>\\n              <span class="icon-bar"></span>\\n            </button>\\n            <a class="navbar-brand" href="\', escape=False)\nresponse.write(URL(\'welcome\'))\nresponse.write(\'">SIGPIE</a>\\n          </div>\\n\\n          <div id="navbar" class="navbar-collapse collapse">\\n            <ul class="nav navbar-nav">\\n              <li style="font-size: 1em; font-family: Arial"><a href="\', escape=False)\nresponse.write(URL(\'postularse\'))\nresponse.write(\'">Postularse</a></li>\\n              <li style="font-size: 1em; font-family: Arial"><a href="\', escape=False)\nresponse.write(URL(\'about\'))\nresponse.write(\'">Informaci\\xc3\\xb3n</a></li>\\n              <li class="dropdown" style="font-size: 1em; font-family: Arial">\\n                <a href="" class="dropdown-toggle" data-toggle="dropdown" role="button" aria-haspopup="true" aria-expanded="false" >Cronograma</a>\\n                <ul class="dropdown-menu">\\n                  <li style="font-size: 1em; font-family: Arial"><a href="#">Charlas</a></li>\\n                  <li style="font-size: 1em; font-family: Arial"><a href="#">Fechas de inter\\xc3\\xa9s</a></li>\\n                </ul>\\n              </li>\\n            </ul>\\n            <ul class="nav navbar-nav navbar-right btn-xs btn-danger">\\n              <li style="font-size: 1.2em; font-family: Arial"><a href="\', escape=False)\nresponse.write(URL(c=\'default\', f=\'logout_cas\'))\nresponse.write(\'">Cerrar Sesi\\xc3\\xb3n</a></li>\\n            </ul>\\n          </div>\\n        </div>\\n      </nav>\\n    </div>\\n    <div class="col-lg-1"></div>\\n  </div>\\n  \', escape=False)\nresponse.write(\'\\n  <div class="row">\\n    <div class="col-lg-1"></div>\\n    <div class="col-lg-10"> \\n      \', escape=False)\nresponse.write(\'\\n\\n\\n  <div class="container-fluid">\\n    <div class="row" id="pwd-container">\\n      <h2 style=" font-size:125%; text-align:center; font-weight: bold; color: black">DATOS PERSONALES </h2>\\n      </div>\\n    </div>\\n    <br>\\n    <div class="row" id="pwd-container">\\n      <div class="col-md-6">\\n      <form>\\n          <div class="form-group">\\n            <label for="nombres">Nombres:</label>\\n            <p>\', escape=False)\nresponse.write(nombre)\nresponse.write(\'</p>\\n          </div>\\n          <br>\\n          <div class="form-group">\\n            <label for="apellidos">Apellidos:</label>\\n            <input type="text" class="form-control" id="apellidos" placeholder="Tu apellido">\\n          </div>\\n\\n          <div class="form-group">\\n            <label style="color:black;" for="genero">G\\xc3\\xa9nero:</label>\\n            <select class="form-control" id="genero">\\n              <option>F</option>\\n              <option>M</option>\\n            </select>\\n          </div>\\n          <div class="form-group">\\n            <label style="color:black;"for="nacionalidad">Nacionalidad:</label>\\n              <input type="text" class="form-control" id="nacionalidad" placeholder="Tu nacionalidad">\\n          </div>\\n          <!--div class="form-group">\\n            <label for="ci">C\\xc3\\xa9dula de identidad:</label>\\n              <select class="form-control">\\n                <option>V</option>\\n                <option>E</option>\\n              </select>\\n              <input type="text" class="form-control" id="ci" placeholder="xxxxxxxx">\\n          </div>\\n          <div class="form-group">\\n            <label for="carnet">N\\xc2\\xba Carnet:</label>\\n              <input type="text" class="form-control" id="carnet" placeholder="Tu n\\xc3\\xbamero de carnet">\\n          </div-->\\n          <div class="form-group">\\n            <label style="color:black;"for="pasaporte">N\\xc2\\xba Pasaporte Vigente:</label>\\n            <input type="text" class="form-control" id="pasaporte" placeholder="Tu n\\xc3\\xbamero de pasaporte">\\n          </div>\\n          <div class="form-group">\\n            <label style="color:black;" for="idioma">Idioma a emplear en la universidad destino:</label>\\n              <input type="email" class="form-control" id="idioma" placeholder="El idioma a emplear en la universidad destino">\\n          </div>\\n          <label style="color:black;">Nivel de suficiencia del idioma a emplear verbal y escrito:</label>\\n          <div class="form-group">  \\n            <label style="color:black;" for="oral">Oral:</label>\\n            <select class="form-control" id="oral">\\n                <option>B\\xc3\\xa1sico</option>\\n                <option>Intermedio</option>\\n                <option>Avanzado</option>\\n            </select>\\n          </div>\\n          <div class="form-group">  \\n            <label style="color:black;"for="escrito">Escrito:</label>\\n            <select class="form-control" id="oral">\\n                <option>B\\xc3\\xa1sico</option>\\n                <option>Intermedio</option>\\n                <option>Avanzado</option>\\n            </select>\\n          </div>\\n          <div class="form-group">  \\n            <label style="color:black;"for="lectura">Lectura:</label>\\n            <select class="form-control" id="oral">\\n                <option>B\\xc3\\xa1sico</option>\\n                <option>Intermedio</option>\\n                <option>Avanzado</option>\\n            </select>\\n          </div>\\n        </form>\\n\\n        <form>\\n          <div class="form-group">\\n            <label style="color:black;"for="direccion">Domicilio Actual:</label>\\n              <textarea type="text" class="form-control" id="direccion" placeholder="Tu direcci\\xc3\\xb3n"></textarea> \\n          </div>\\n        </form>\\n      </div>\\n\\n      <div class="col-md-6">\\n      <label style=" color:black; font-size:125%; text-align:left; font-weight: bold;">Datos de contacto: </label>\\n        </form>\\n        <form>\\n          <div class="col-md-6">\\n            <div class="form-group">\\n              <label style="color:black;"for="tlf_hab">Tel\\xc3\\xa9fono de Habitaci\\xc3\\xb3n:</label>\\n              <input type="tel" class="form-control" id="tlf_hab" placeholder="xxxx-xxxxxxx">          \\n            </div>\\n            <div class="form-group">\\n              <label style="color:black;" for="tlf_cel">Tel\\xc3\\xa9fono Celular:</label>\\n              <input type="tel" class="form-control" id="tlf_cel" placeholder="xxxx-xxxxxxx">          \\n            </div>\\n          </div>\\n          <div class="col-md-6">\\n            <div class="form-group">\\n              <label style="color:black;" for="e-mail">E-mail:</label>\\n              <input type="email" class="form-control" id="e-mail" placeholder="Tu e-mail">\\n            </div>\\n            <div class="form-group">\\n              <label style="color:black;" for="redes">Redes Sociales:</label>\\n              <textarea type="text" class="form-control" id="redes" placeholder="Tus usuarios de redes sociales"></textarea>\\n            </div>\\n          </div>\\n         </form> \\n      <label style=" color:black; font-size:125%; text-align:left; font-weight: bold;">Datos de una persona a contactar en casos de emergencias:</label>\\n            <div class="form-group">\\n            <label style="color:black;"for="exampleInputName2">Nombres y Apellidos:</label>\\n              <input type="text" class="form-control" id="nombre_contact" placeholder="Nombre y apellido de contacto de emergencia">\\n            </div>       \\n            <div class="form-group">\\n              <label style="color:black;" for="exampleInputEmail2">Direcci\\xc3\\xb3n:</label>\\n              <textarea type="email" class="form-control" id="exampleInputEmail2" placeholder="Direcci\\xc3\\xb3n de contacto de emergencia"></textarea>\\n            </div>  \\n          <div class="form-group">\\n            <label style="color:black;" for="relacion_contact">Relaci\\xc3\\xb3n con el estudiante:</label>\\n            <select class="form-control" id="relacion_contact">\\n                <option>Madre</option>\\n                <option>Padre</option>\\n                <option>Otro Familiar</option>\\n                <option>Otro</option>\\n            </select>\\n          </div>  \\n          <div class="form-group">\\n            <label style="color:black;" for="tlf_hab_contact">Tel\\xc3\\xa9fono de Habitaci\\xc3\\xb3n:</label>\\n              <input type="tel" class="form-control" id="tlf_hab_contact" placeholder="xxxx-xxxxxxx">\\n          </div>\\n          <div class="form-group">\\n            <label style="color:black;"for="tlf_cel_contact">Tel\\xc3\\xa9fono Celular:</label>\\n              <input type="tel" class="form-control" id="tlf_cel_contact" placeholder="xxxx-xxxxxxx">\\n          </div>\\n          <div class="form-group">\\n            <label style="color:black;"for="email_contact">E-mail:</label>\\n              <input type="email" class="form-control" id="email_contact" placeholder="E-mail de contacto de emergencia">\\n          </div> \\n          </form>     \\n      </div>\\n    </div> \\n  </div>\\n\\n  <div class="row">\\n    <div class="col-md-10"></div>\\n    <div class="col-md-1">\\n      <a href="\', escape=False)\nresponse.write(URL(\'form2\'))\nresponse.write(\'" class="btn btn-success" role="button" style="float:right;">Siguiente >></a>\\n    </div>\\n</div>\\n\\n    <div class ="row">\\n    <br><br>\\n    <div class="col-md-5"></div>\\n      <a href="\', escape=False)\nresponse.write(URL(\'welcome\'))\nresponse.write(\'" class="btn btn-primary" role="button">Guardar Planilla</a>\\n  </div>\\n\\n\\n\', escape=False)\nresponse.write(\'\\n    </div>     \\n    <div class="col-lg-1"></div>\\n  </div>\\n\\n  \', escape=False)\nresponse.write(\'\\n  <br><br>\\n    <div class="col-lg-1"></div>\\n    <div class="col-lg-10">  \\n      <footer>\\n        <p class="pull-right"><a href="#">Back to top</a></p>\\n        <p>&copy; 2017 DRIC USB &middot;</p>\\n      </footer>  \\n    </div>     \\n    <div class="col-lg-1"></div>\\n  \', escape=False)\nresponse.write(\'\\n\\n  \', escape=False)\nresponse.write(\'\\n    <!-- Bootstrap core JavaScript\\n    ================================================== -->\\n    <!-- Placed at the end of the document so the pages load faster -->\\n    <script src="\', escape=False)\nresponse.write(URL(\'static\', \'js/jquery.js\'))\nresponse.write(\'"></script>\\n    <script src="\', escape=False)\nresponse.write(URL(\'static\', \'js/bootstrap.min.js\'))\nresponse.write(\'"></script>\\n    <script src="\', escape=False)\nresponse.write(URL(\'static\', \'js/holder.min.js\'))\nresponse.write(\'"></script>\\n    <script src="\', escape=False)\nresponse.write(URL(\'static\', \'js/web2py.js\'))\nresponse.write(\'"></script>\\n    <script src="\', escape=False)\nresponse.write(URL(\'static\', \'js/modernizr-2.8.3.min.js\'))\nresponse.write(\'"></script>\\n  \', escape=False)\nresponse.write(\'\\n  </body>\\n</html>\\n\\n\', escape=False)'
p7
sS'snapshot'
p8
(dp9
S'exception'
p10
(dp11
S'__hash__'
p12
S"<method-wrapper '__hash__' of exceptions.NameError object>"
p13
sS'__setattr__'
p14
S"<method-wrapper '__setattr__' of exceptions.NameError object>"
p15
sS'__reduce_ex__'
p16
S'<built-in method __reduce_ex__ of exceptions.NameError object>'
p17
sS'__getslice__'
p18
S"<method-wrapper '__getslice__' of exceptions.NameError object>"
p19
sS'__getitem__'
p20
S"<method-wrapper '__getitem__' of exceptions.NameError object>"
p21
sS'__setstate__'
p22
S'<built-in method __setstate__ of exceptions.NameError object>'
p23
sS'args'
p24
S'("name \'nombre\' is not defined",)'
p25
sS'__reduce__'
p26
S'<built-in method __reduce__ of exceptions.NameError object>'
p27
sS'__str__'
p28
S"<method-wrapper '__str__' of exceptions.NameError object>"
p29
sS'__format__'
p30
S'<built-in method __format__ of exceptions.NameError object>'
p31
sS'__getattribute__'
p32
S"<method-wrapper '__getattribute__' of exceptions.NameError object>"
p33
sS'__class__'
p34
S"<type 'exceptions.NameError'>"
p35
sS'__unicode__'
p36
S'<built-in method __unicode__ of exceptions.NameError object>'
p37
sS'__delattr__'
p38
S"<method-wrapper '__delattr__' of exceptions.NameError object>"
p39
sS'__subclasshook__'
p40
S'<built-in method __subclasshook__ of type object>'
p41
sS'__repr__'
p42
S"<method-wrapper '__repr__' of exceptions.NameError object>"
p43
sS'__dict__'
p44
S'{}'
p45
sS'__sizeof__'
p46
S'<built-in method __sizeof__ of exceptions.NameError object>'
p47
sS'__doc__'
p48
S"'Name not found globally.'"
p49
sS'__init__'
p50
S"<method-wrapper '__init__' of exceptions.NameError object>"
p51
sS'__new__'
p52
S'<built-in method __new__ of type object>'
p53
ssS'evalue'
p54
S"name 'nombre' is not defined"
p55
sS'request'
p56
cgluon.html
XML_unpickle
p57
(S'sYO\x00\x00<div><table><tr><td style="font-weight:bold;vertical-align:top;">ajax</td><td style="vertical-align:top;">:</td><td><div>False</div></td></tr><tr><td style="font-weight:bold;vertical-align:top;">application</td><td style="vertical-align:top;">:</td><td><div>SIGPIE</div></td></tr><tr><td style="font-weight:bold;vertical-align:top;">args</td><td style="vertical-align:top;">:</td><td><div><table></table></div></td></tr><tr><td style="font-weight:bold;vertical-align:top;">cid</td><td style="vertical-align:top;">:</td><td><div>None</div></td></tr><tr><td style="font-weight:bold;vertical-align:top;">client</td><td style="vertical-align:top;">:</td><td><div>127.0.0.1</div></td></tr><tr><td style="font-weight:bold;vertical-align:top;">controller</td><td style="vertical-align:top;">:</td><td><div>default</div></td></tr><tr><td style="font-weight:bold;vertical-align:top;">cookies</td><td style="vertical-align:top;">:</td><td><div><table><tr><td style="font-weight:bold;vertical-align:top;">session_id_sigpie</td><td style="vertical-align:top;">:</td><td><div>127.0.0.1-2810289a-a822-4faa-bc35-380f5f6bb65a<table><tr><td style="font-weight:bold;vertical-align:top;">comment</td><td style="vertical-align:top;">:</td><td><div></div></td></tr><tr><td style="font-weight:bold;vertical-align:top;">domain</td><td style="vertical-align:top;">:</td><td><div></div></td></tr><tr><td style="font-weight:bold;vertical-align:top;">expires</td><td style="vertical-align:top;">:</td><td><div></div></td></tr><tr><td style="font-weight:bold;vertical-align:top;">httponly</td><td style="vertical-align:top;">:</td><td><div></div></td></tr><tr><td style="font-weight:bold;vertical-align:top;">max-age</td><td style="vertical-align:top;">:</td><td><div></div></td></tr><tr><td style="font-weight:bold;vertical-align:top;">path</td><td style="vertical-align:top;">:</td><td><div></div></td></tr><tr><td style="font-weight:bold;vertical-align:top;">secure</td><td style="vertical-align:top;">:</td><td><div></div></td></tr><tr><td style="font-weight:bold;vertical-align:top;">version</td><td style="vertical-align:top;">:</td><td><div></div></td></tr></table></div></td></tr></table></div></td></tr><tr><td style="font-weight:bold;vertical-align:top;">env</td><td style="vertical-align:top;">:</td><td><div><table><tr><td style="font-weight:bold;vertical-align:top;">HTTP_ACCEPT</td><td style="vertical-align:top;">:</td><td><div>text/html,application/xhtml+xml,application/xml;q=0.9,image/webp,*/*;q=0.8</div></td></tr><tr><td style="font-weight:bold;vertical-align:top;">HTTP_ACCEPT_ENCODING</td><td style="vertical-align:top;">:</td><td><div>gzip, deflate, sdch, br</div></td></tr><tr><td style="font-weight:bold;vertical-align:top;">HTTP_ACCEPT_LANGUAGE</td><td style="vertical-align:top;">:</td><td><div>es-419,es;q=0.8</div></td></tr><tr><td style="font-weight:bold;vertical-align:top;">HTTP_CONNECTION</td><td style="vertical-align:top;">:</td><td><div>keep-alive</div></td></tr><tr><td style="font-weight:bold;vertical-align:top;">HTTP_COOKIE</td><td style="vertical-align:top;">:</td><td><div>session_id_sigpie=127.0.0.1-2810289a-a822-4faa-bc35-380f5f6bb65a</div></td></tr><tr><td style="font-weight:bold;vertical-align:top;">HTTP_HOST</td><td style="vertical-align:top;">:</td><td><div>localhost:8000</div></td></tr><tr><td style="font-weight:bold;vertical-align:top;">HTTP_REFERER</td><td style="vertical-align:top;">:</td><td><div>http://localhost:8000/welcome</div></td></tr><tr><td style="font-weight:bold;vertical-align:top;">HTTP_UPGRADE_INSECURE_REQUESTS</td><td style="vertical-align:top;">:</td><td><div>1</div></td></tr><tr><td style="font-weight:bold;vertical-align:top;">HTTP_USER_AGENT</td><td style="vertical-align:top;">:</td><td><div>Mozilla/5.0 (X11; Linux x86_64) AppleWebKit/537.36 (KHTML, like Gecko) Chrome/56.0.2924.87 Safari/537.36</div></td></tr><tr><td style="font-weight:bold;vertical-align:top;">PATH_INFO</td><td style="vertical-align:top;">:</td><td><div>/postularse</div></td></tr><tr><td style="font-weight:bold;vertical-align:top;">QUERY_STRING</td><td style="vertical-align:top;">:</td><td><div></div></td></tr><tr><td style="font-weight:bold;vertical-align:top;">REMOTE_ADDR</td><td style="vertical-align:top;">:</td><td><div>127.0.0.1</div></td></tr><tr><td style="font-weight:bold;vertical-align:top;">REMOTE_PORT</td><td style="vertical-align:top;">:</td><td><div>35902</div></td></tr><tr><td style="font-weight:bold;vertical-align:top;">REQUEST_METHOD</td><td style="vertical-align:top;">:</td><td><div>GET</div></td></tr><tr><td style="font-weight:bold;vertical-align:top;">SCRIPT_NAME</td><td style="vertical-align:top;">:</td><td><div></div></td></tr><tr><td style="font-weight:bold;vertical-align:top;">SERVER_NAME</td><td style="vertical-align:top;">:</td><td><div>vero-desktop</div></td></tr><tr><td style="font-weight:bold;vertical-align:top;">SERVER_PORT</td><td style="vertical-align:top;">:</td><td><div>8000</div></td></tr><tr><td style="font-weight:bold;vertical-align:top;">SERVER_PROTOCOL</td><td style="vertical-align:top;">:</td><td><div>HTTP/1.1</div></td></tr><tr><td style="font-weight:bold;vertical-align:top;">SERVER_SOFTWARE</td><td style="vertical-align:top;">:</td><td><div>Rocket 1.2.6</div></td></tr><tr><td style="font-weight:bold;vertical-align:top;">app_folders</td><td style="vertical-align:top;">:</td><td><div>set([&#x27;/home/vero/Escritorio/SIGPIE/applications/SIGPIE/&#x27;])</div></td></tr><tr><td style="font-weight:bold;vertical-align:top;">applications_parent</td><td style="vertical-align:top;">:</td><td><div>/home/vero/Escritorio/SIGPIE</div></td></tr><tr><td style="font-weight:bold;vertical-align:top;">cmd_args</td><td style="vertical-align:top;">:</td><td><div><table></table></div></td></tr><tr><td style="font-weight:bold;vertical-align:top;">cmd_options</td><td style="vertical-align:top;">:</td><td><div>&lt;Values at 0x7f4390bb6050: {&#x27;verbose&#x27;: False, &#x27;ip&#x27;: &#x27;127.0.0.1&#x27;, &#x27;debuglevel&#x27;: 30, &#x27;with_scheduler&#x27;: False, &#x27;shutdown_timeout&#x27;: 5, &#x27;taskbar&#x27;: False, &#x27;with_coverage&#x27;: False, &#x27;pid_filename&#x27;: &#x27;httpserver.pid&#x27;, &#x27;maxthreads&#x27;: None, &#x27;softcron&#x27;: False, &#x27;server_name&#x27;: &#x27;vero-desktop&#x27;, &#x27;bpython&#x27;: False, &#x27;nogui&#x27;: False, &#x27;port&#x27;: 8000, &#x27;print_errors&#x27;: False, &#x27;extcron&#x27;: False, &#x27;runcron&#x27;: False, &#x27;run_system_tests&#x27;: False, &#x27;test&#x27;: None, &#x27;folder&#x27;: &#x27;/home/vero/Escritorio/SIGPIE&#x27;, &#x27;config&#x27;: &#x27;&#x27;, &#x27;minthreads&#x27;: None, &#x27;shell&#x27;: None, &#x27;run&#x27;: &#x27;&#x27;, &#x27;log_filename&#x27;: &#x27;httpserver.log&#x27;, &#x27;profiler_dir&#x27;: None, &#x27;args&#x27;: [&#x27;&#x27;], &#x27;socket_timeout&#x27;: 5, &#x27;ssl_ca_certificate&#x27;: None, &#x27;scheduler&#x27;: None, &#x27;interfaces&#x27;: None, &#x27;ssl_private_key&#x27;: &#x27;&#x27;, &#x27;gae&#x27;: None, &#x27;password&#x27;: &#x27;******&#x27;, &#x27;request_queue_size&#x27;: 5, &#x27;ssl_certificate&#x27;: &#x27;&#x27;, &#x27;cronjob&#x27;: False, &#x27;numthreads&#x27;: None, &#x27;quiet&#x27;: False, &#x27;import_models&#x27;: False, &#x27;timeout&#x27;: 10, &#x27;plain&#x27;: False, &#x27;nobanner&#x27;: False}&gt;</div></td></tr><tr><td style="font-weight:bold;vertical-align:top;">db_sessions</td><td style="vertical-align:top;">:</td><td><div>set([])</div></td></tr><tr><td style="font-weight:bold;vertical-align:top;">debugging</td><td style="vertical-align:top;">:</td><td><div>False</div></td></tr><tr><td style="font-weight:bold;vertical-align:top;">gluon_parent</td><td style="vertical-align:top;">:</td><td><div>/home/vero/Escritorio/SIGPIE</div></td></tr><tr><td style="font-weight:bold;vertical-align:top;">http_accept</td><td style="vertical-align:top;">:</td><td><div>text/html,application/xhtml+xml,application/xml;q=0.9,image/webp,*/*;q=0.8</div></td></tr><tr><td style="font-weight:bold;vertical-align:top;">http_accept_encoding</td><td style="vertical-align:top;">:</td><td><div>gzip, deflate, sdch, br</div></td></tr><tr><td style="font-weight:bold;vertical-align:top;">http_accept_language</td><td style="vertical-align:top;">:</td><td><div>es-419,es;q=0.8</div></td></tr><tr><td style="font-weight:bold;vertical-align:top;">http_connection</td><td style="vertical-align:top;">:</td><td><div>keep-alive</div></td></tr><tr><td style="font-weight:bold;vertical-align:top;">http_cookie</td><td style="vertical-align:top;">:</td><td><div>session_id_sigpie=127.0.0.1-2810289a-a822-4faa-bc35-380f5f6bb65a</div></td></tr><tr><td style="font-weight:bold;vertical-align:top;">http_host</td><td style="vertical-align:top;">:</td><td><div>localhost:8000</div></td></tr><tr><td style="font-weight:bold;vertical-align:top;">http_referer</td><td style="vertical-align:top;">:</td><td><div>http://localhost:8000/welcome</div></td></tr><tr><td style="font-weight:bold;vertical-align:top;">http_upgrade_insecure_requests</td><td style="vertical-align:top;">:</td><td><div>1</div></td></tr><tr><td style="font-weight:bold;vertical-align:top;">http_user_agent</td><td style="vertical-align:top;">:</td><td><div>Mozilla/5.0 (X11; Linux x86_64) AppleWebKit/537.36 (KHTML, like Gecko) Chrome/56.0.2924.87 Safari/537.36</div></td></tr><tr><td style="font-weight:bold;vertical-align:top;">is_jython</td><td style="vertical-align:top;">:</td><td><div>False</div></td></tr><tr><td style="font-weight:bold;vertical-align:top;">is_pypy</td><td style="vertical-align:top;">:</td><td><div>False</div></td></tr><tr><td style="font-weight:bold;vertical-align:top;">is_source</td><td style="vertical-align:top;">:</td><td><div>True</div></td></tr><tr><td style="font-weight:bold;vertical-align:top;">local_hosts</td><td style="vertical-align:top;">:</td><td><div><table><tr><td><div>vero-desktop</div></td></tr><tr><td><div>::1</div></td></tr><tr><td><div>127.0.1.1</div></td></tr><tr><td><div>::ffff:127.0.0.1</div></td></tr><tr><td><div>127.0.0.1</div></td></tr></table></div></td></tr><tr><td style="font-weight:bold;vertical-align:top;">path_info</td><td style="vertical-align:top;">:</td><td><div>/postularse</div></td></tr><tr><td style="font-weight:bold;vertical-align:top;">query_string</td><td style="vertical-align:top;">:</td><td><div></div></td></tr><tr><td style="font-weight:bold;vertical-align:top;">remote_addr</td><td style="vertical-align:top;">:</td><td><div>127.0.0.1</div></td></tr><tr><td style="font-weight:bold;vertical-align:top;">remote_port</td><td style="vertical-align:top;">:</td><td><div>35902</div></td></tr><tr><td style="font-weight:bold;vertical-align:top;">request_method</td><td style="vertical-align:top;">:</td><td><div>GET</div></td></tr><tr><td style="font-weight:bold;vertical-align:top;">request_uri</td><td style="vertical-align:top;">:</td><td><div>/SIGPIE/default/postularse</div></td></tr><tr><td style="font-weight:bold;vertical-align:top;">script_name</td><td style="vertical-align:top;">:</td><td><div></div></td></tr><tr><td style="font-weight:bold;vertical-align:top;">server_name</td><td style="vertical-align:top;">:</td><td><div>vero-desktop</div></td></tr><tr><td style="font-weight:bold;vertical-align:top;">server_port</td><td style="vertical-align:top;">:</td><td><div>8000</div></td></tr><tr><td style="font-weight:bold;vertical-align:top;">server_protocol</td><td style="vertical-align:top;">:</td><td><div>HTTP/1.1</div></td></tr><tr><td style="font-weight:bold;vertical-align:top;">server_software</td><td style="vertical-align:top;">:</td><td><div>Rocket 1.2.6</div></td></tr><tr><td style="font-weight:bold;vertical-align:top;">web2py_original_uri</td><td style="vertical-align:top;">:</td><td><div>/postularse</div></td></tr><tr><td style="font-weight:bold;vertical-align:top;">web2py_path</td><td style="vertical-align:top;">:</td><td><div>/home/vero/Escritorio/SIGPIE</div></td></tr><tr><td style="font-weight:bold;vertical-align:top;">web2py_version</td><td style="vertical-align:top;">:</td><td><div>2.14.6-stable+timestamp.2016.05.10.00.21.47</div></td></tr><tr><td style="font-weight:bold;vertical-align:top;">wsgi.errors</td><td style="vertical-align:top;">:</td><td><div>&lt;open file &#x27;&lt;stderr&gt;&#x27;, mode &#x27;w&#x27; at 0x7f4394c8f1e0&gt;</div></td></tr><tr><td style="font-weight:bold;vertical-align:top;">wsgi.file_wrapper</td><td style="vertical-align:top;">:</td><td><div>&lt;class wsgiref.util.FileWrapper at 0x7f4390bc8f58&gt;</div></td></tr><tr><td style="font-weight:bold;vertical-align:top;">wsgi.input</td><td style="vertical-align:top;">:</td><td><div>&lt;socket._fileobject object at 0x7f435b110bd0&gt;</div></td></tr><tr><td style="font-weight:bold;vertical-align:top;">wsgi.multiprocess</td><td style="vertical-align:top;">:</td><td><div>False</div></td></tr><tr><td style="font-weight:bold;vertical-align:top;">wsgi.multithread</td><td style="vertical-align:top;">:</td><td><div>True</div></td></tr><tr><td style="font-weight:bold;vertical-align:top;">wsgi.run_once</td><td style="vertical-align:top;">:</td><td><div>False</div></td></tr><tr><td style="font-weight:bold;vertical-align:top;">wsgi.url_scheme</td><td style="vertical-align:top;">:</td><td><div>http</div></td></tr><tr><td style="font-weight:bold;vertical-align:top;">wsgi.version</td><td style="vertical-align:top;">:</td><td><div><table><tr><td><div>1</div></td></tr><tr><td><div>0</div></td></tr></table></div></td></tr><tr><td style="font-weight:bold;vertical-align:top;">wsgi_errors</td><td style="vertical-align:top;">:</td><td><div>&lt;open file &#x27;&lt;stderr&gt;&#x27;, mode &#x27;w&#x27; at 0x7f4394c8f1e0&gt;</div></td></tr><tr><td style="font-weight:bold;vertical-align:top;">wsgi_file_wrapper</td><td style="vertical-align:top;">:</td><td><div>&lt;class wsgiref.util.FileWrapper at 0x7f4390bc8f58&gt;</div></td></tr><tr><td style="font-weight:bold;vertical-align:top;">wsgi_input</td><td style="vertical-align:top;">:</td><td><div>&lt;socket._fileobject object at 0x7f435b110bd0&gt;</div></td></tr><tr><td style="font-weight:bold;vertical-align:top;">wsgi_multiprocess</td><td style="vertical-align:top;">:</td><td><div>False</div></td></tr><tr><td style="font-weight:bold;vertical-align:top;">wsgi_multithread</td><td style="vertical-align:top;">:</td><td><div>True</div></td></tr><tr><td style="font-weight:bold;vertical-align:top;">wsgi_run_once</td><td style="vertical-align:top;">:</td><td><div>False</div></td></tr><tr><td style="font-weight:bold;vertical-align:top;">wsgi_url_scheme</td><td style="vertical-align:top;">:</td><td><div>http</div></td></tr><tr><td style="font-weight:bold;vertical-align:top;">wsgi_version</td><td style="vertical-align:top;">:</td><td><div><table><tr><td><div>1</div></td></tr><tr><td><div>0</div></td></tr></table></div></td></tr></table></div></td></tr><tr><td style="font-weight:bold;vertical-align:top;">extension</td><td style="vertical-align:top;">:</td><td><div>html</div></td></tr><tr><td style="font-weight:bold;vertical-align:top;">folder</td><td style="vertical-align:top;">:</td><td><div>/home/vero/Escritorio/SIGPIE/applications/SIGPIE/</div></td></tr><tr><td style="font-weight:bold;vertical-align:top;">function</td><td style="vertical-align:top;">:</td><td><div>postularse</div></td></tr><tr><td style="font-weight:bold;vertical-align:top;">global_settings</td><td style="vertical-align:top;">:</td><td><div><table><tr><td style="font-weight:bold;vertical-align:top;">app_folders</td><td style="vertical-align:top;">:</td><td><div>set([&#x27;/home/vero/Escritorio/SIGPIE/applications/SIGPIE/&#x27;])</div></td></tr><tr><td style="font-weight:bold;vertical-align:top;">applications_parent</td><td style="vertical-align:top;">:</td><td><div>/home/vero/Escritorio/SIGPIE</div></td></tr><tr><td style="font-weight:bold;vertical-align:top;">cmd_args</td><td style="vertical-align:top;">:</td><td><div><table></table></div></td></tr><tr><td style="font-weight:bold;vertical-align:top;">cmd_options</td><td style="vertical-align:top;">:</td><td><div>&lt;Values at 0x7f4390bb6050: {&#x27;verbose&#x27;: False, &#x27;ip&#x27;: &#x27;127.0.0.1&#x27;, &#x27;debuglevel&#x27;: 30, &#x27;with_scheduler&#x27;: False, &#x27;shutdown_timeout&#x27;: 5, &#x27;taskbar&#x27;: False, &#x27;with_coverage&#x27;: False, &#x27;pid_filename&#x27;: &#x27;httpserver.pid&#x27;, &#x27;maxthreads&#x27;: None, &#x27;softcron&#x27;: False, &#x27;server_name&#x27;: &#x27;vero-desktop&#x27;, &#x27;bpython&#x27;: False, &#x27;nogui&#x27;: False, &#x27;port&#x27;: 8000, &#x27;print_errors&#x27;: False, &#x27;extcron&#x27;: False, &#x27;runcron&#x27;: False, &#x27;run_system_tests&#x27;: False, &#x27;test&#x27;: None, &#x27;folder&#x27;: &#x27;/home/vero/Escritorio/SIGPIE&#x27;, &#x27;config&#x27;: &#x27;&#x27;, &#x27;minthreads&#x27;: None, &#x27;shell&#x27;: None, &#x27;run&#x27;: &#x27;&#x27;, &#x27;log_filename&#x27;: &#x27;httpserver.log&#x27;, &#x27;profiler_dir&#x27;: None, &#x27;args&#x27;: [&#x27;&#x27;], &#x27;socket_timeout&#x27;: 5, &#x27;ssl_ca_certificate&#x27;: None, &#x27;scheduler&#x27;: None, &#x27;interfaces&#x27;: None, &#x27;ssl_private_key&#x27;: &#x27;&#x27;, &#x27;gae&#x27;: None, &#x27;password&#x27;: &#x27;******&#x27;, &#x27;request_queue_size&#x27;: 5, &#x27;ssl_certificate&#x27;: &#x27;&#x27;, &#x27;cronjob&#x27;: False, &#x27;numthreads&#x27;: None, &#x27;quiet&#x27;: False, &#x27;import_models&#x27;: False, &#x27;timeout&#x27;: 10, &#x27;plain&#x27;: False, &#x27;nobanner&#x27;: False}&gt;</div></td></tr><tr><td style="font-weight:bold;vertical-align:top;">db_sessions</td><td style="vertical-align:top;">:</td><td><div>set([])</div></td></tr><tr><td style="font-weight:bold;vertical-align:top;">debugging</td><td style="vertical-align:top;">:</td><td><div>False</div></td></tr><tr><td style="font-weight:bold;vertical-align:top;">gluon_parent</td><td style="vertical-align:top;">:</td><td><div>/home/vero/Escritorio/SIGPIE</div></td></tr><tr><td style="font-weight:bold;vertical-align:top;">is_jython</td><td style="vertical-align:top;">:</td><td><div>False</div></td></tr><tr><td style="font-weight:bold;vertical-align:top;">is_pypy</td><td style="vertical-align:top;">:</td><td><div>False</div></td></tr><tr><td style="font-weight:bold;vertical-align:top;">is_source</td><td style="vertical-align:top;">:</td><td><div>True</div></td></tr><tr><td style="font-weight:bold;vertical-align:top;">local_hosts</td><td style="vertical-align:top;">:</td><td><div><table><tr><td><div>vero-desktop</div></td></tr><tr><td><div>::1</div></td></tr><tr><td><div>127.0.1.1</div></td></tr><tr><td><div>::ffff:127.0.0.1</div></td></tr><tr><td><div>127.0.0.1</div></td></tr></table></div></td></tr><tr><td style="font-weight:bold;vertical-align:top;">web2py_version</td><td style="vertical-align:top;">:</td><td><div>2.14.6-stable+timestamp.2016.05.10.00.21.47</div></td></tr></table></div></td></tr><tr><td style="font-weight:bold;vertical-align:top;">is_https</td><td style="vertical-align:top;">:</td><td><div>False</div></td></tr><tr><td style="font-weight:bold;vertical-align:top;">is_local</td><td style="vertical-align:top;">:</td><td><div>True</div></td></tr><tr><td style="font-weight:bold;vertical-align:top;">is_restful</td><td style="vertical-align:top;">:</td><td><div>False</div></td></tr><tr><td style="font-weight:bold;vertical-align:top;">is_scheduler</td><td style="vertical-align:top;">:</td><td><div>False</div></td></tr><tr><td style="font-weight:bold;vertical-align:top;">is_shell</td><td style="vertical-align:top;">:</td><td><div>False</div></td></tr><tr><td style="font-weight:bold;vertical-align:top;">now</td><td style="vertical-align:top;">:</td><td><div>datetime.datetime(2017, 3, 4, 23, 33, 11, 258640)</div></td></tr><tr><td style="font-weight:bold;vertical-align:top;">url</td><td style="vertical-align:top;">:</td><td><div>/postularse</div></td></tr><tr><td style="font-weight:bold;vertical-align:top;">utcnow</td><td style="vertical-align:top;">:</td><td><div>datetime.datetime(2017, 3, 5, 3, 33, 11, 258677)</div></td></tr><tr><td style="font-weight:bold;vertical-align:top;">wsgi</td><td style="vertical-align:top;">:</td><td><div>&lt;gluon.main.LazyWSGI object at 0x7f4388028590&gt;</div></td></tr></table></div>'
tRp58
sS'frames'
p59
(lp60
(dp61
S'file'
p62
S'/home/vero/Escritorio/SIGPIE/gluon/restricted.py'
p63
sS'dump'
p64
(dp65
S'environment'
p66
S"{'A': <class 'gluon.html.A'>, 'ANY_OF': <class 'gluon.validators.ANY_OF'>, 'ASSIGNJS': <function ASSIGNJS>, 'AppConfig': <function AppConfig>, 'Auth': <class 'gluon.tools.Auth'>, 'B': <class 'gluon.html.B'>, 'BEAUTIFY': <class 'gluon.html.BEAUTIFY'>, 'BODY': <class 'gluon.html.BODY'>, 'BR': <class 'gluon.html.BR'>, 'BUTTON': <class 'gluon.html.BUTTON'>, ...}"
p67
sS'ccode'
p68
S'<code object <module> at 0x7f435b0f12b0, file "/...ns/SIGPIE/views/default/postularse.html", line 1>'
p69
ssS'lnum'
p70
I227
sS'lines'
p71
(dp72
I224
S'            ccode = code'
p73
sI225
S'        else:'
p74
sI226
S'            ccode = compile2(code, layer)'
p75
sI227
S'        exec ccode in environment'
p76
sI228
S'    except HTTP:'
p77
sI229
S'        raise'
p78
sI230
S'    except RestrictedError:'
p79
sI231
S'        # do not encapsulate (obfuscate) the original RestrictedError'
p80
sI222
S'    try:'
p81
sI223
S'        if isinstance(code, types.CodeType):'
p82
ssS'call'
p83
S'(code=r"response.write(\'<!DOCTYPE html>\\n<html>\\n<head>\\...e.write(\'\\n  </body>\\n</html>\\n\\n\', escape=False)", environment={\'A\': <class \'gluon.html.A\'>, \'ANY_OF\': <class \'gluon.validators.ANY_OF\'>, \'ASSIGNJS\': <function ASSIGNJS>, \'AppConfig\': <function AppConfig>, \'Auth\': <class \'gluon.tools.Auth\'>, \'B\': <class \'gluon.html.B\'>, \'BEAUTIFY\': <class \'gluon.html.BEAUTIFY\'>, \'BODY\': <class \'gluon.html.BODY\'>, \'BR\': <class \'gluon.html.BR\'>, \'BUTTON\': <class \'gluon.html.BUTTON\'>, ...}, layer=\'/home/vero/Escritorio/SIGPIE/applications/SIGPIE/views/default/postularse.html\')'
p84
sS'func'
p85
S'restricted'
p86
sa(dp87
g62
S'/home/vero/Escritorio/SIGPIE/applications/SIGPIE/views/default/postularse.html'
p88
sg64
(dp89
S'div'
p90
S'undefined'
p91
ssg70
I23
sg71
(dp92
I32
S'response.write(\'\\n    <!-- Bootstrap core JavaScript\\n    ================================================== -->\\n    <!-- Placed at the end of the document so the pages load faster -->\\n    <script src="\', escape=False)'
p93
sI33
S"response.write(URL('static', 'js/jquery.js'))"
p94
sI14
S'response.write(\'">SIGPIE</a>\\n          </div>\\n\\n          <div id="navbar" class="navbar-collapse collapse">\\n            <ul class="nav navbar-nav">\\n              <li style="font-size: 1em; font-family: Arial"><a href="\', escape=False)'
p95
sI15
S"response.write(URL('postularse'))"
p96
sI16
S'response.write(\'">Postularse</a></li>\\n              <li style="font-size: 1em; font-family: Arial"><a href="\', escape=False)'
p97
sI17
S"response.write(URL('about'))"
p98
sI18
S'response.write(\'">Informaci\\xc3\\xb3n</a></li>\\n              <li class="dropdown" style="font-size: 1em; font-family: Arial">\\n                <a href="" class="dropdown-toggle" data-toggle="dropdown" role="button" aria-haspopup="true" aria-expanded="false" >Cronograma</a>\\n                <ul class="dropdown-menu">\\n                  <li style="font-size: 1em; font-family: Arial"><a href="#">Charlas</a></li>\\n                  <li style="font-size: 1em; font-family: Arial"><a href="#">Fechas de inter\\xc3\\xa9s</a></li>\\n                </ul>\\n              </li>\\n            </ul>\\n            <ul class="nav navbar-nav navbar-right btn-xs btn-danger">\\n              <li style="font-size: 1.2em; font-family: Arial"><a href="\', escape=False)'
p99
sI19
S"response.write(URL(c='default', f='logout_cas'))"
p100
sI20
S'response.write(\'">Cerrar Sesi\\xc3\\xb3n</a></li>\\n            </ul>\\n          </div>\\n        </div>\\n      </nav>\\n    </div>\\n    <div class="col-lg-1"></div>\\n  </div>\\n  \', escape=False)'
p101
sI21
S'response.write(\'\\n  <div class="row">\\n    <div class="col-lg-1"></div>\\n    <div class="col-lg-10"> \\n      \', escape=False)'
p102
sI22
S'response.write(\'\\n\\n\\n  <div class="container-fluid">\\n    <div class="row" id="pwd-container">\\n      <h2 style=" font-size:125%; text-align:center; font-weight: bold; color: black">DATOS PERSONALES </h2>\\n      </div>\\n    </div>\\n    <br>\\n    <div class="row" id="pwd-container">\\n      <div class="col-md-6">\\n      <form>\\n          <div class="form-group">\\n            <label for="nombres">Nombres:</label>\\n            <p>\', escape=False)'
p103
sI23
S'response.write(nombre)'
p104
sI24
S'response.write(\'</p>\\n          </div>\\n          <br>\\n          <div class="form-group">\\n            <label for="apellidos">Apellidos:</label>\\n            <input type="text" class="form-control" id="apellidos" placeholder="Tu apellido">\\n          </div>\\n\\n          <div class="form-group">\\n            <label style="color:black;" for="genero">G\\xc3\\xa9nero:</label>\\n            <select class="form-control" id="genero">\\n              <option>F</option>\\n              <option>M</option>\\n            </select>\\n          </div>\\n          <div class="form-group">\\n            <label style="color:black;"for="nacionalidad">Nacionalidad:</label>\\n              <input type="text" class="form-control" id="nacionalidad" placeholder="Tu nacionalidad">\\n          </div>\\n          <!--div class="form-group">\\n            <label for="ci">C\\xc3\\xa9dula de identidad:</label>\\n              <select class="form-control">\\n                <option>V</option>\\n                <option>E</option>\\n              </select>\\n              <input type="text" class="form-control" id="ci" placeholder="xxxxxxxx">\\n          </div>\\n          <div class="form-group">\\n            <label for="carnet">N\\xc2\\xba Carnet:</label>\\n              <input type="text" class="form-control" id="carnet" placeholder="Tu n\\xc3\\xbamero de carnet">\\n          </div-->\\n          <div class="form-group">\\n            <label style="color:black;"for="pasaporte">N\\xc2\\xba Pasaporte Vigente:</label>\\n            <input type="text" class="form-control" id="pasaporte" placeholder="Tu n\\xc3\\xbamero de pasaporte">\\n          </div>\\n          <div class="form-group">\\n            <label style="color:black;" for="idioma">Idioma a emplear en la universidad destino:</label>\\n              <input type="email" class="form-control" id="idioma" placeholder="El idioma a emplear en la universidad destino">\\n          </div>\\n          <label style="color:black;">Nivel de suficiencia del idioma a emplear verbal y escrito:</label>\\n          <div class="form-group">  \\n            <label style="color:black;" for="oral">Oral:</label>\\n            <select class="form-control" id="oral">\\n                <option>B\\xc3\\xa1sico</option>\\n                <option>Intermedio</option>\\n                <option>Avanzado</option>\\n            </select>\\n          </div>\\n          <div class="form-group">  \\n            <label style="color:black;"for="escrito">Escrito:</label>\\n            <select class="form-control" id="oral">\\n                <option>B\\xc3\\xa1sico</option>\\n                <option>Intermedio</option>\\n                <option>Avanzado</option>\\n            </select>\\n          </div>\\n          <div class="form-group">  \\n            <label style="color:black;"for="lectura">Lectura:</label>\\n            <select class="form-control" id="oral">\\n                <option>B\\xc3\\xa1sico</option>\\n                <option>Intermedio</option>\\n                <option>Avanzado</option>\\n            </select>\\n          </div>\\n        </form>\\n\\n        <form>\\n          <div class="form-group">\\n            <label style="color:black;"for="direccion">Domicilio Actual:</label>\\n              <textarea type="text" class="form-control" id="direccion" placeholder="Tu direcci\\xc3\\xb3n"></textarea> \\n          </div>\\n        </form>\\n      </div>\\n\\n      <div class="col-md-6">\\n      <label style=" color:black; font-size:125%; text-align:left; font-weight: bold;">Datos de contacto: </label>\\n        </form>\\n        <form>\\n          <div class="col-md-6">\\n            <div class="form-group">\\n              <label style="color:black;"for="tlf_hab">Tel\\xc3\\xa9fono de Habitaci\\xc3\\xb3n:</label>\\n              <input type="tel" class="form-control" id="tlf_hab" placeholder="xxxx-xxxxxxx">          \\n            </div>\\n            <div class="form-group">\\n              <label style="color:black;" for="tlf_cel">Tel\\xc3\\xa9fono Celular:</label>\\n              <input type="tel" class="form-control" id="tlf_cel" placeholder="xxxx-xxxxxxx">          \\n            </div>\\n          </div>\\n          <div class="col-md-6">\\n            <div class="form-group">\\n              <label style="color:black;" for="e-mail">E-mail:</label>\\n              <input type="email" class="form-control" id="e-mail" placeholder="Tu e-mail">\\n            </div>\\n            <div class="form-group">\\n              <label style="color:black;" for="redes">Redes Sociales:</label>\\n              <textarea type="text" class="form-control" id="redes" placeholder="Tus usuarios de redes sociales"></textarea>\\n            </div>\\n          </div>\\n         </form> \\n      <label style=" color:black; font-size:125%; text-align:left; font-weight: bold;">Datos de una persona a contactar en casos de emergencias:</label>\\n            <div class="form-group">\\n            <label style="color:black;"for="exampleInputName2">Nombres y Apellidos:</label>\\n              <input type="text" class="form-control" id="nombre_contact" placeholder="Nombre y apellido de contacto de emergencia">\\n            </div>       \\n            <div class="form-group">\\n              <label style="color:black;" for="exampleInputEmail2">Direcci\\xc3\\xb3n:</label>\\n              <textarea type="email" class="form-control" id="exampleInputEmail2" placeholder="Direcci\\xc3\\xb3n de contacto de emergencia"></textarea>\\n            </div>  \\n          <div class="form-group">\\n            <label style="color:black;" for="relacion_contact">Relaci\\xc3\\xb3n con el estudiante:</label>\\n            <select class="form-control" id="relacion_contact">\\n                <option>Madre</option>\\n                <option>Padre</option>\\n                <option>Otro Familiar</option>\\n                <option>Otro</option>\\n            </select>\\n          </div>  \\n          <div class="form-group">\\n            <label style="color:black;" for="tlf_hab_contact">Tel\\xc3\\xa9fono de Habitaci\\xc3\\xb3n:</label>\\n              <input type="tel" class="form-control" id="tlf_hab_contact" placeholder="xxxx-xxxxxxx">\\n          </div>\\n          <div class="form-group">\\n            <label style="color:black;"for="tlf_cel_contact">Tel\\xc3\\xa9fono Celular:</label>\\n              <input type="tel" class="form-control" id="tlf_cel_contact" placeholder="xxxx-xxxxxxx">\\n          </div>\\n          <div class="form-group">\\n            <label style="color:black;"for="email_contact">E-mail:</label>\\n              <input type="email" class="form-control" id="email_contact" placeholder="E-mail de contacto de emergencia">\\n          </div> \\n          </form>     \\n      </div>\\n    </div> \\n  </div>\\n\\n  <div class="row">\\n    <div class="col-md-10"></div>\\n    <div class="col-md-1">\\n      <a href="\', escape=False)'
p105
sI25
S"response.write(URL('form2'))"
p106
sI26
S'response.write(\'" class="btn btn-success" role="button" style="float:right;">Siguiente >></a>\\n    </div>\\n</div>\\n\\n    <div class ="row">\\n    <br><br>\\n    <div class="col-md-5"></div>\\n      <a href="\', escape=False)'
p107
sI27
S"response.write(URL('welcome'))"
p108
sI28
S'response.write(\'" class="btn btn-primary" role="button">Guardar Planilla</a>\\n  </div>\\n\\n\\n\', escape=False)'
p109
sI29
S'response.write(\'\\n    </div>     \\n    <div class="col-lg-1"></div>\\n  </div>\\n\\n  \', escape=False)'
p110
sI30
S'response.write(\'\\n  <br><br>\\n    <div class="col-lg-1"></div>\\n    <div class="col-lg-10">  \\n      <footer>\\n        <p class="pull-right"><a href="#">Back to top</a></p>\\n        <p>&copy; 2017 DRIC USB &middot;</p>\\n      </footer>  \\n    </div>     \\n    <div class="col-lg-1"></div>\\n  \', escape=False)'
p111
sI31
S"response.write('\\n\\n  ', escape=False)"
p112
ssg83
S'()'
p113
sg85
S'<module>'
p114
sasS'pyver'
p115
S'Python 2.7.12: /usr/bin/python (prefix: /usr)'
p116
sS'session'
p117
g57
(S's\x08\x05\x00\x00<div><table><tr><td style="font-weight:bold;vertical-align:top;">usuario</td><td style="vertical-align:top;">:</td><td><div><table><tr><td style="font-weight:bold;vertical-align:top;">carrera</td><td style="vertical-align:top;">:</td><td><div>Ingenieria de Computacion</div></td></tr><tr><td style="font-weight:bold;vertical-align:top;">cedula</td><td style="vertical-align:top;">:</td><td><div>24207265</div></td></tr><tr><td style="font-weight:bold;vertical-align:top;">email</td><td style="vertical-align:top;">:</td><td><div>13-10853@usb.ve</div></td></tr><tr><td style="font-weight:bold;vertical-align:top;">first_name</td><td style="vertical-align:top;">:</td><td><div>Veronica Andreina</div></td></tr><tr><td style="font-weight:bold;vertical-align:top;">last_name</td><td style="vertical-align:top;">:</td><td><div>Mazutiel Vargas</div></td></tr><tr><td style="font-weight:bold;vertical-align:top;">phone</td><td style="vertical-align:top;">:</td><td><div>None</div></td></tr><tr><td style="font-weight:bold;vertical-align:top;">tipo</td><td style="vertical-align:top;">:</td><td><div>Pregrado</div></td></tr><tr><td style="font-weight:bold;vertical-align:top;">usbid</td><td style="vertical-align:top;">:</td><td><div>13-10853</div></td></tr></table></div></td></tr></table></div>'
tRp118
sS'etype'
p119
S"<type 'exceptions.NameError'>"
p120
sS'date'
p121
S'Sat Mar  4 23:33:11 2017'
p122
sS'response'
p123
g57
(S'sz\x17\x00\x00<div><table><tr><td style="font-weight:bold;vertical-align:top;">body</td><td style="vertical-align:top;">:</td><td><div>&lt;cStringIO.StringO object at 0x7f435b1cc340&gt;</div></td></tr><tr><td style="font-weight:bold;vertical-align:top;">cookies</td><td style="vertical-align:top;">:</td><td><div><table><tr><td style="font-weight:bold;vertical-align:top;">session_id_sigpie</td><td style="vertical-align:top;">:</td><td><div>127.0.0.1-2810289a-a822-4faa-bc35-380f5f6bb65a<table><tr><td style="font-weight:bold;vertical-align:top;">comment</td><td style="vertical-align:top;">:</td><td><div></div></td></tr><tr><td style="font-weight:bold;vertical-align:top;">domain</td><td style="vertical-align:top;">:</td><td><div></div></td></tr><tr><td style="font-weight:bold;vertical-align:top;">expires</td><td style="vertical-align:top;">:</td><td><div></div></td></tr><tr><td style="font-weight:bold;vertical-align:top;">httponly</td><td style="vertical-align:top;">:</td><td><div></div></td></tr><tr><td style="font-weight:bold;vertical-align:top;">max-age</td><td style="vertical-align:top;">:</td><td><div></div></td></tr><tr><td style="font-weight:bold;vertical-align:top;">path</td><td style="vertical-align:top;">:</td><td><div>/</div></td></tr><tr><td style="font-weight:bold;vertical-align:top;">secure</td><td style="vertical-align:top;">:</td><td><div></div></td></tr><tr><td style="font-weight:bold;vertical-align:top;">version</td><td style="vertical-align:top;">:</td><td><div></div></td></tr></table></div></td></tr></table></div></td></tr><tr><td style="font-weight:bold;vertical-align:top;">delimiters</td><td style="vertical-align:top;">:</td><td><div><table><tr><td><div>{{</div></td></tr><tr><td><div>}}</div></td></tr></table></div></td></tr><tr><td style="font-weight:bold;vertical-align:top;">files</td><td style="vertical-align:top;">:</td><td><div><table></table></div></td></tr><tr><td style="font-weight:bold;vertical-align:top;">flash</td><td style="vertical-align:top;">:</td><td><div></div></td></tr><tr><td style="font-weight:bold;vertical-align:top;">form_label_separator</td><td style="vertical-align:top;">:</td><td><div></div></td></tr><tr><td style="font-weight:bold;vertical-align:top;">formstyle</td><td style="vertical-align:top;">:</td><td><div>bootstrap3_inline</div></td></tr><tr><td style="font-weight:bold;vertical-align:top;">generic_patterns</td><td style="vertical-align:top;">:</td><td><div><table><tr><td><div>*</div></td></tr></table></div></td></tr><tr><td style="font-weight:bold;vertical-align:top;">headers</td><td style="vertical-align:top;">:</td><td><div><table><tr><td style="font-weight:bold;vertical-align:top;">X-Powered-By</td><td style="vertical-align:top;">:</td><td><div>web2py</div></td></tr></table></div></td></tr><tr><td style="font-weight:bold;vertical-align:top;">menu</td><td style="vertical-align:top;">:</td><td><div><table></table></div></td></tr><tr><td style="font-weight:bold;vertical-align:top;">meta</td><td style="vertical-align:top;">:</td><td><div><table></table></div></td></tr><tr><td style="font-weight:bold;vertical-align:top;">models_to_run</td><td style="vertical-align:top;">:</td><td><div><table><tr><td><div>^\\w+\\.py$</div></td></tr><tr><td><div>^default/\\w+\\.py$</div></td></tr><tr><td><div>^default/postularse/\\w+\\.py$</div></td></tr></table></div></td></tr><tr><td style="font-weight:bold;vertical-align:top;">postprocessing</td><td style="vertical-align:top;">:</td><td><div><table></table></div></td></tr><tr><td style="font-weight:bold;vertical-align:top;">session_client</td><td style="vertical-align:top;">:</td><td><div>127.0.0.1</div></td></tr><tr><td style="font-weight:bold;vertical-align:top;">session_cookie_compression_level</td><td style="vertical-align:top;">:</td><td><div>None</div></td></tr><tr><td style="font-weight:bold;vertical-align:top;">session_cookie_expires</td><td style="vertical-align:top;">:</td><td><div>None</div></td></tr><tr><td style="font-weight:bold;vertical-align:top;">session_data_name</td><td style="vertical-align:top;">:</td><td><div>session_data_sigpie</div></td></tr><tr><td style="font-weight:bold;vertical-align:top;">session_file</td><td style="vertical-align:top;">:</td><td><div>&lt;open file &#x27;/home/vero/Escritorio/SIGPIE/applications/SIGPIE/sessions/1b8/065/127.0.0.1-2810289a-a822-4faa-bc35-380f5f6bb65a&#x27;, mode &#x27;rb+&#x27; at 0x7f435b125300&gt;</div></td></tr><tr><td style="font-weight:bold;vertical-align:top;">session_filename</td><td style="vertical-align:top;">:</td><td><div>/home/vero/Escritorio/SIGPIE/applications/SIGPIE/sessions/127.0.0.1-2810289a-a822-4faa-bc35-380f5f6bb65a</div></td></tr><tr><td style="font-weight:bold;vertical-align:top;">session_hash</td><td style="vertical-align:top;">:</td><td><div>39996427f3ffee0c4f6d015b3c288cb1</div></td></tr><tr><td style="font-weight:bold;vertical-align:top;">session_id</td><td style="vertical-align:top;">:</td><td><div>127.0.0.1-2810289a-a822-4faa-bc35-380f5f6bb65a</div></td></tr><tr><td style="font-weight:bold;vertical-align:top;">session_id_name</td><td style="vertical-align:top;">:</td><td><div>session_id_sigpie</div></td></tr><tr><td style="font-weight:bold;vertical-align:top;">session_locked</td><td style="vertical-align:top;">:</td><td><div>True</div></td></tr><tr><td style="font-weight:bold;vertical-align:top;">session_masterapp</td><td style="vertical-align:top;">:</td><td><div>SIGPIE</div></td></tr><tr><td style="font-weight:bold;vertical-align:top;">session_new</td><td style="vertical-align:top;">:</td><td><div>False</div></td></tr><tr><td style="font-weight:bold;vertical-align:top;">session_storage_type</td><td style="vertical-align:top;">:</td><td><div>file</div></td></tr><tr><td style="font-weight:bold;vertical-align:top;">status</td><td style="vertical-align:top;">:</td><td><div>200</div></td></tr><tr><td style="font-weight:bold;vertical-align:top;">view</td><td style="vertical-align:top;">:</td><td><div>default/postularse.html</div></td></tr></table></div>'
tRp124
sS'locals'
p125
(dp126
S'Service'
p127
S"<class 'gluon.tools.Service'>"
p128
sS'OBJECT'
p129
S"<class 'gluon.html.OBJECT'>"
p130
sS'SQLDB'
p131
S"<class 'pydal.base.DAL'>"
p132
sg117
S"<Storage {'usuario': {'first_name': 'Veronica An...mail': '13-10853@usb.ve', 'cedula': '24207265'}}>"
p133
sS'LINK'
p134
S"<class 'gluon.html.LINK'>"
p135
sS'BR'
p136
S"<class 'gluon.html.BR'>"
p137
sS'local_import'
p138
S'<function <lambda>>'
p139
sS'OPTGROUP'
p140
S"<class 'gluon.html.OPTGROUP'>"
p141
sS'__package__'
p142
S'None'
p143
sS'PRE'
p144
S"<class 'gluon.html.PRE'>"
p145
sS'IS_INT_IN_RANGE'
p146
S"<class 'gluon.validators.IS_INT_IN_RANGE'>"
p147
sS'IS_LOWER'
p148
S"<class 'gluon.validators.IS_LOWER'>"
p149
sS'IS_STRONG'
p150
S"<class 'gluon.validators.IS_STRONG'>"
p151
sS'cache'
p152
S'<gluon.cache.Cache object>'
p153
sS'IS_IN_DB'
p154
S"<class 'gluon.validators.IS_IN_DB'>"
p155
sS'TAG'
p156
S'<gluon.html.__TAG__ object>'
p157
sS'SQLField'
p158
S"<class 'pydal.objects.Field'>"
p159
sS'BODY'
p160
S"<class 'gluon.html.BODY'>"
p161
sS'IS_DATE_IN_RANGE'
p162
S"<class 'gluon.validators.IS_DATE_IN_RANGE'>"
p163
sS'IFRAME'
p164
S"<class 'gluon.html.IFRAME'>"
p165
sS'URL'
p166
S'<function URL>'
p167
sS'__file__'
p168
S"'/home/vero/Escritorio/SIGPIE/applications/SIGPIE/views/default/postularse.html'"
p169
sS'db'
p170
S'<DAL uri="sqlite://storage.sqlite">'
p171
sS'auth'
p172
S'<gluon.tools.Auth object>'
p173
sS'P'
S"<class 'gluon.html.P'>"
p174
sS'TFOOT'
p175
S"<class 'gluon.html.TFOOT'>"
p176
sS'XHTML'
p177
S"<class 'gluon.html.XHTML'>"
p178
sS'datetime'
p179
S"<module 'datetime' (built-in)>"
p180
sS'ON'
p181
S'True'
p182
sS'OL'
p183
S"<class 'gluon.html.OL'>"
p184
sS'TEXTAREA'
p185
S"<class 'gluon.html.TEXTAREA'>"
p186
sS'MENU'
p187
S"<class 'gluon.html.MENU'>"
p188
sS'IS_IMAGE'
p189
S"<class 'gluon.validators.IS_IMAGE'>"
p190
sS'EM'
p191
S"<class 'gluon.html.EM'>"
p192
sS'CODE'
p193
S"<class 'gluon.html.CODE'>"
p194
sS'HTTP'
p195
S"<class 'gluon.http.HTTP'>"
p196
sS'HR'
p197
S"<class 'gluon.html.HR'>"
p198
sS'IS_DATETIME'
p199
S"<class 'gluon.validators.IS_DATETIME'>"
p200
sS'STYLE'
p201
S"<class 'gluon.html.STYLE'>"
p202
sS'LABEL'
p203
S"<class 'gluon.html.LABEL'>"
p204
sS'CLEANUP'
p205
S"<class 'gluon.validators.CLEANUP'>"
p206
sS'SELECT'
p207
S"<class 'gluon.html.SELECT'>"
p208
sS'CENTER'
p209
S"<class 'gluon.html.CENTER'>"
p210
sS'Auth'
p211
S"<class 'gluon.tools.Auth'>"
p212
sS'__builtins__'
p213
S"{'ArithmeticError': <type 'exceptions.ArithmeticError'>, 'AssertionError': <type 'exceptions.AssertionError'>, 'AttributeError': <type 'exceptions.AttributeError'>, 'BaseException': <type 'exceptions.BaseException'>, 'BufferError': <type 'exceptions.BufferError'>, 'BytesWarning': <type 'exceptions.BytesWarning'>, 'DeprecationWarning': <type 'exceptions.DeprecationWarning'>, 'EOFError': <type 'exceptions.EOFError'>, 'Ellipsis': Ellipsis, 'EnvironmentError': <type 'exceptions.EnvironmentError'>, ...}"
p214
sS'HTML'
p215
S"<class 'gluon.html.HTML'>"
p216
sS'SQLFORM'
p217
S"<class 'gluon.sqlhtml.SQLFORM'>"
p218
sS'LOAD'
p219
S'<function LOAD>'
p220
sS'redirect'
p221
S'<function redirect>'
p222
sS'FIELDSET'
p223
S"<class 'gluon.html.FIELDSET'>"
p224
sS'IS_EQUAL_TO'
p225
S"<class 'gluon.validators.IS_EQUAL_TO'>"
p226
sS'embed64'
p227
S'<function embed64>'
p228
sS'IS_LIST_OF'
p229
S"<class 'gluon.validators.IS_LIST_OF'>"
p230
sS'INPUT'
p231
S"<class 'gluon.html.INPUT'>"
p232
sS'EMBED'
p233
S"<class 'gluon.html.EMBED'>"
p234
sS'myconf'
p235
S"{'forms': {'formstyle': 'bootstrap3_inline', 'se...': {'names': 'localhost:*, 127.0.0.1:*, *:*, *'}}"
p236
sS'H2'
p237
S"<class 'gluon.html.H2'>"
p238
sS'H3'
p239
S"<class 'gluon.html.H3'>"
p240
sS'AppConfig'
p241
S'<function AppConfig>'
p242
sS'H1'
p243
S"<class 'gluon.html.H1'>"
p244
sS'H6'
p245
S"<class 'gluon.html.H6'>"
p246
sS'H4'
p247
S"<class 'gluon.html.H4'>"
p248
sS'H5'
p249
S"<class 'gluon.html.H5'>"
p250
sS'UL'
p251
S"<class 'gluon.html.UL'>"
p252
sS'IS_UPPER'
p253
S"<class 'gluon.validators.IS_UPPER'>"
p254
sS'xmlescape'
p255
S'<function xmlescape>'
p256
sS'IS_TIME'
p257
S"<class 'gluon.validators.IS_TIME'>"
p258
sS'os'
p259
S"<module 'os' from '/usr/lib/python2.7/os.pyc'>"
p260
sS'OPTION'
p261
S"<class 'gluon.html.OPTION'>"
p262
sS'TITLE'
p263
S"<class 'gluon.html.TITLE'>"
p264
sS'CRYPT'
p265
S"<class 'gluon.validators.CRYPT'>"
p266
sS'IS_EMPTY_OR'
p267
S"<class 'gluon.validators.IS_EMPTY_OR'>"
p268
sS'MARKMIN'
p269
S"<class 'gluon.html.MARKMIN'>"
p270
sS'__name__'
p271
S"'__restricted__'"
p272
sS'STRONG'
p273
S"<class 'gluon.html.STRONG'>"
p274
sS'COL'
p275
S"<class 'gluon.html.COL'>"
p276
sS'SCRIPT'
p277
S"<class 'gluon.html.SCRIPT'>"
p278
sS'TABLE'
p279
S"<class 'gluon.html.TABLE'>"
p280
sS'IS_IPV4'
p281
S"<class 'gluon.validators.IS_IPV4'>"
p282
sS'IS_LENGTH'
p283
S"<class 'gluon.validators.IS_LENGTH'>"
p284
sS'IS_IPV6'
p285
S"<class 'gluon.validators.IS_IPV6'>"
p286
sS'XML'
p287
S"<class 'gluon.html.XML'>"
p288
sS'B'
S"<class 'gluon.html.B'>"
p289
sS'IMG'
p290
S"<class 'gluon.html.IMG'>"
p291
sS'SQLTABLE'
p292
S"<class 'gluon.sqlhtml.SQLTABLE'>"
p293
sS'IS_MATCH'
p294
S"<class 'gluon.validators.IS_MATCH'>"
p295
sS'IS_ALPHANUMERIC'
p296
S"<class 'gluon.validators.IS_ALPHANUMERIC'>"
p297
sS'SPAN'
p298
S"<class 'gluon.html.SPAN'>"
p299
sS'IS_JSON'
p300
S"<class 'gluon.validators.IS_JSON'>"
p301
sS'IS_IPADDRESS'
p302
S"<class 'gluon.validators.IS_IPADDRESS'>"
p303
sS'IS_SLUG'
p304
S"<class 'gluon.validators.IS_SLUG'>"
p305
sS'BEAUTIFY'
p306
S"<class 'gluon.html.BEAUTIFY'>"
p307
sS'META'
p308
S"<class 'gluon.html.META'>"
p309
sS'BUTTON'
p310
S"<class 'gluon.html.BUTTON'>"
p311
sS'IS_DATE'
p312
S"<class 'gluon.validators.IS_DATE'>"
p313
sS'IS_EMAIL'
p314
S"<class 'gluon.validators.IS_EMAIL'>"
p315
sS'IS_NOT_EMPTY'
p316
S"<class 'gluon.validators.IS_NOT_EMPTY'>"
p317
sS'IS_FLOAT_IN_RANGE'
p318
S"<class 'gluon.validators.IS_FLOAT_IN_RANGE'>"
p319
sS'TBODY'
p320
S"<class 'gluon.html.TBODY'>"
p321
sS'CAT'
p322
S"<class 'gluon.html.CAT'>"
p323
sS'Field'
p324
S"<class 'pydal.objects.Field'>"
p325
sS'IS_LIST_OF_EMAILS'
p326
S"<class 'gluon.validators.IS_LIST_OF_EMAILS'>"
p327
sS'Mail'
p328
S"<class 'gluon.tools.Mail'>"
p329
sS'DIV'
p330
S"<class 'gluon.html.DIV'>"
p331
sS'LEGEND'
p332
S"<class 'gluon.html.LEGEND'>"
p333
sS'COLGROUP'
p334
S"<class 'gluon.html.COLGROUP'>"
p335
sS'DAL'
p336
S"<class 'pydal.base.DAL'>"
p337
sS'ASSIGNJS'
p338
S'<function ASSIGNJS>'
p339
sS'TR'
p340
S"<class 'gluon.html.TR'>"
p341
sS'LI'
p342
S"<class 'gluon.html.LI'>"
p343
sS'dal'
p344
S"<module 'gluon.dal' from '/home/vero/Escritorio/SIGPIE/gluon/dal.pyc'>"
p345
sS'TH'
p346
S"<class 'gluon.html.TH'>"
p347
sS'TD'
p348
S"<class 'gluon.html.TD'>"
p349
sS'PluginManager'
p350
S"<class 'gluon.tools.PluginManager'>"
p351
sS'IS_URL'
p352
S"<class 'gluon.validators.IS_URL'>"
p353
sS'A'
S"<class 'gluon.html.A'>"
p354
sS'HEAD'
p355
S"<class 'gluon.html.HEAD'>"
p356
sS'IS_DATETIME_IN_RANGE'
p357
S"<class 'gluon.validators.IS_DATETIME_IN_RANGE'>"
p358
sS'FORM'
p359
S"<class 'gluon.html.FORM'>"
p360
sS'I'
S"<class 'gluon.html.I'>"
p361
sS'IS_NOT_IN_DB'
p362
S"<class 'gluon.validators.IS_NOT_IN_DB'>"
p363
sg123
S"<Storage {'body': <cStringIO.StringO object at 0...f435b0d1140>, 'view': 'default/postularse.html'}>"
p364
sS'THEAD'
p365
S"<class 'gluon.html.THEAD'>"
p366
sS'ANY_OF'
p367
S"<class 'gluon.validators.ANY_OF'>"
p368
sS'IS_NULL_OR'
p369
S"<class 'gluon.validators.IS_EMPTY_OR'>"
p370
sg56
S"<Storage {'_vars': None, 'function': 'postularse...me/vero/Escritorio/SIGPIE/applications/SIGPIE/'}>"
p371
sS'IS_EXPR'
p372
S"<class 'gluon.validators.IS_EXPR'>"
p373
sS'T'
S'<gluon.languages.translator object>'
p374
sS'IS_IN_SET'
p375
S"<class 'gluon.validators.IS_IN_SET'>"
p376
sS'IS_UPLOAD_FILENAME'
p377
S"<class 'gluon.validators.IS_UPLOAD_FILENAME'>"
p378
sS'TT'
p379
S"<class 'gluon.html.TT'>"
p380
sS'IS_DECIMAL_IN_RANGE'
p381
S"<class 'gluon.validators.IS_DECIMAL_IN_RANGE'>"
p382
sssS'traceback'
p383
S'Traceback (most recent call last):\n  File "/home/vero/Escritorio/SIGPIE/gluon/restricted.py", line 227, in restricted\n    exec ccode in environment\n  File "/home/vero/Escritorio/SIGPIE/applications/SIGPIE/views/default/postularse.html", line 23, in <module>\n    </div>\nNameError: name \'nombre\' is not defined\n'
p384
s.