(dp1
S'output'
p2
S"<class 'sqlite3.IntegrityError'> FOREIGN KEY constraint failed"
p3
sS'layer'
p4
S'/home/julio/Downloads/SIGPIE-Presentacion1/applications/prueba1/views/default/user.html'
p5
sS'code'
p6
S'response.write(\'<!DOCTYPE html>\\n\', escape=False)\nresponse.write(\'\\n<html version="HTML+RDFa 1.0" lang="es" dir="ltr" xmlns="http://www.w3.org/1999/xhtml"\\n  xmlns:content="http://purl.org/rss/1.0/modules/content/"\\n  xmlns:dc="http://purl.org/dc/terms/"\\n  xmlns:foaf="http://xmlns.com/foaf/0.1/"\\n  xmlns:og="http://ogp.me/ns#"\\n  xmlns:rdfs="http://www.w3.org/2000/01/rdf-schema#"\\n  xmlns:sioc="http://rdfs.org/sioc/ns#"\\n  xmlns:sioct="http://rdfs.org/sioc/types#"\\n  xmlns:skos="http://www.w3.org/2004/02/skos/core#"\\n  xmlns:xsd="http://www.w3.org/2001/XMLSchema#">\\n\\n\\n<head profile="http://www.w3.org/1999/xhtml/vocab">\\n  <meta charset="utf-8" />\\n<!--link rel="shortcut icon" href="http://www.internacionales.usb.ve/sites/default/files/favicon_0.ico" type="image/vnd.microsoft.icon" /-->\\n<meta http-equiv="X-UA-Compatible" content="IE=edge,chrome=1" />\\n<meta content="BIENVENIDO AL SIGPIE" about="/es/node/108" property="dc:title" />\\n<link rel="shortlink" href="/es/node/108" />\\n<meta name="Generator" content="Drupal 7 (http://drupal.org)" />\\n<link rel="canonical" href="/es/node/108" />\\n  <title>BIENVENIDO A LA  DRIC-USB | Direcci\\xc3\\xb3n de Relaciones Internacionales</title>\\n\\n\', escape=False)\nresponse.write(\'\\n\\n\\n\\n<meta charset="utf-8">\\n<meta http-equiv="X-UA-Compatible" content="IE=edge">\\n<meta name="viewport" content="width=device-width, initial-scale=1">\\n<!-- The above 3 meta tags *must* come first in the head; any other head content must come *after* these tags -->\\n<meta name="description" content="">\\n<meta name="author" content="">\\n\\n<title>\', escape=False)\nresponse.write(response.title)\nresponse.write(\'</title>\\n\\n<!-- Bootstrap core CSS -->\\n<link href="\', escape=False)\nresponse.write(URL(\'static\', \'css/bootstrap.min.css\'))\nresponse.write(\'" rel="stylesheet">\\n<!-- HTML5 shim and Respond.js for IE8 support of HTML5 elements and media queries -->\\n<!--[if lt IE 9]>\\n  <script src="https://oss.maxcdn.com/html5shiv/3.7.3/html5shiv.min.js"></script>\\n  <script src="https://oss.maxcdn.com/respond/1.4.2/respond.min.js"></script>\\n<![endif]-->\\n\\n<!-- Custom styles for this template -->\\n\', escape=False)\nresponse.write(\'\\n<link href="\', escape=False)\nresponse.write(URL(\'static\', \'css/navbar2.css\'))\nresponse.write(\'" rel="stylesheet">\\n<style type="text/css">\\n  @CHARSET "UTF-8";\\n  /*\\n  over-ride "Weak" message, show font in dark grey\\n  */\\n\\n  .progress-bar {\\n      color: #333;\\n  }\\n\\n  /*\\n  Reference:\\n  http://www.bootstrapzen.com/item/135/simple-login-form-logo/\\n  */\\n\\n  * {\\n      -webkit-box-sizing: border-box;\\n       -moz-box-sizing: border-box;\\n            box-sizing: border-box;\\n    outline: none;\\n  }\\n\\n      .form-control {\\n      position: relative;\\n      font-size: 16px;\\n      height: auto;\\n      padding: 10px;\\n      @include box-sizing(border-box);\\n\\n      &:focus {\\n        z-index: 2;\\n      }\\n    }\\n\\n  /*body {\\n    background: url(http://cinejardin.com/wp-content/uploads/2014/11/Biblioteca_USB-1.jpg) no-repeat center center fixed;\\n      -webkit-background-size: cover;\\n      -moz-background-size: cover;\\n      -o-background-size: cover;\\n      background-size: cover;\\n  }*/\\n\\n  .login-form {\\n    margin-top: 150px;\\n  }\\n\\n  form[role=login] {\\n    color: #5d5d5d;\\n    background: #f2f2f2;\\n    padding: 26px;\\n    border-radius: 10px;\\n    -moz-border-radius: 10px;\\n    -webkit-border-radius: 10px;\\n  }\\n    form[role=login] img {\\n      display: block;\\n      margin: 0 auto;\\n      margin-bottom: 10px;\\n    }\\n    form[role=login] input{\\n      margin: 10px;\\n    }\\n\\n    form[role=login] button {\\n      font-size: 18px;\\n      margin: 16px 0;\\n    }\\n    form[role=login] > div {\\n      text-align: center;\\n    }\\n\\n  .form-links {\\n    text-align: center;\\n    margin-top: 1em;\\n    margin-bottom: 50px;\\n  }\\n  .form-links a {\\n    color: #fff;\\n  }\\n\\n  #auth_user_remember_me__row{\\n    display: none;\\n  }\\n\\n</style>\\n\', escape=False)\nresponse.write(\'\\n</head>\\n\\n<!-- NAVBAR\\n================================================== -->\\n\\n\\n  <body>\\n    <!--div id="container" class="container-16">\\n      <header id="header" class="section section-header clearfix" role="banner">\\n        <hgroup class="grid-10">\\n          <a title="Inicio" rel="home" href="/es"><img src="http://www.internacionales.usb.ve/sites/default/files/logo_drupal.gif" alt="Inicio"/></a>\\n        </hgroup>\\n      </header>\\n    </div-->\\n\\n    \', escape=False)\nresponse.write(\'\\n    <div class="navbar-wrapper">\\n      <nav class="navbar navbar-default">\\n        <div class="container-fluid">\\n          <div class="navbar-header">\\n            <button type="button" class="navbar-toggle collapsed" data-toggle="collapse" data-target="#navbar" aria-expanded="false" aria-controls="navbar">\\n              <span class="sr-only">Toggle navigation</span>\\n              <span class="icon-bar"></span>\\n              <span class="icon-bar"></span>\\n              <span class="icon-bar"></span>\\n            </button>\\n            <a class="navbar-brand" href="\', escape=False)\nresponse.write(URL(\'index\'))\nresponse.write(\'">SIGPIE</a>\\n          </div>\\n\\n          <div id="navbar" class="navbar-collapse collapse">\\n            <ul class="nav navbar-nav">\\n\\n            </ul>\\n\\n            <ul class="nav navbar-nav navbar-right">\\n              <li class="dropdown" style="font-size: 1em; font-family: Arial">\\n                    <a href="" class="dropdown-toggle" data-toggle="dropdown" role="button" aria-haspopup="true" aria-expanded="false" >Iniciar Sesi\\xc3\\xb3n<span class="caret"></span></a>\\n                    <ul class="dropdown-menu">\\n                      <li style="font-size: 1em; font-family: Arial"><a href="\', escape=False)\nresponse.write(URL(\'register\'))\nresponse.write(\'">Registrarse</a></li>\\n                      <li style="font-size: 1em; font-family: Arial"><a href="#">\\xc2\\xbfOlvidaste tu Contrase\\xc3\\xb1a?</a></li>\\n                      <li role="separator" class="divider"></li>\\n                      <li style="font-size: 1em; font-family: Arial"><a href="\', escape=False)\nresponse.write(URL(\'user\'))\nresponse.write(\'">Iniciar Sesi\\xc3\\xb3n</a></li>\\n                  </li>\\n            </ul>\\n          </div>\\n        </div>\\n      </nav>\\n    </div>\\n\\n    \', escape=False)\nresponse.write(\'\\n\\n    <!-- Carousel\\n    ================================================== -->\\n    \', escape=False)\nresponse.write(\'\\n\', escape=False)\nresponse.write(\'\\n    <!-- Marketing messaging and featurettes\\n    ================================================== -->\\n    <!-- Wrap the rest of the page in another container to center all the content. -->\\n    <div class="container marketing">\\n      \', escape=False)\nresponse.write(\'\\n\\n  <!--\', escape=False)\nresponse.write(auth())\nresponse.write(\'-->\\n  <div class="container">\\n\\n    <div class="row" id="pwd-container">\\n      <div class="col-md-4"></div>\\n\\n      <div class="col-md-4">\\n        <section class="login-form">\\n          <form method="post" role="login">\\n            <img src="http://noticias.universia.edu.ve/ve/images/migracion/132x228/c/cl/climatico.jpg" class="img-responsive" alt="" />\\n            <!--input type="email" name="email" placeholder="Email" required class="form-control input-lg"/>\\n\\n            <input type="password" class="form-control input-lg" id="password" placeholder="Password" required="" /-->\\n\\n\\n            <div class="pwstrength_viewport_progress"></div>\\n\\n\\n            <!--button type="submit" name="go" class="btn btn-lg btn-primary btn-block">Sign in</button-->\\n            <div>\\n              \', escape=False)\nresponse.write(login)\nresponse.write(\'\\n              <a href="\', escape=False)\nresponse.write(URL(\'register\'))\nresponse.write(\'">Crear cuenta</a> o <a href="#">restablecer contrase\\xc3\\xb1a</a>\\n            </div>\\n          </form>\\n\\n          <div class="form-links">\\n          </div>\\n        </section>\\n        </div>\\n\\n        <div class="col-md-4"></div>\\n\\n\\n    </div>\\n\\n    <p>\\n      <br>\\n      <br>\\n\\n    </p>\\n\\n\\n  </div>\\n\', escape=False)\nresponse.write(\'\\n\\n      <!-- START THE FEATURETTES -->\\n      <hr class="featurette-divider">\\n      \', escape=False)\nresponse.write(\'\\n\\n\', escape=False)\nresponse.write(\'\\n      <!-- /END THE FEATURETTES -->\\n\\n\\n      <!-- FOOTER -->\\n      \', escape=False)\nresponse.write(\'\\n<footer>\\n        <p>&copy; 2017 DRIC USB </p>\\n      </footer>\\n\', escape=False)\nresponse.write(\'\\n    </div><!-- /.container -->\\n\\n\\n    <!-- Bootstrap core JavaScript\\n    ================================================== -->\\n    <!-- Placed at the end of the document so the pages load faster -->\\n    <script src="\', escape=False)\nresponse.write(URL(\'static\', \'js/jquery.js\'))\nresponse.write(\'"></script>\\n    <script src="\', escape=False)\nresponse.write(URL(\'static\', \'js/bootstrap.min.js\'))\nresponse.write(\'"></script>\\n    <script src="\', escape=False)\nresponse.write(URL(\'static\', \'js/holder.min.js\'))\nresponse.write(\'"></script>\\n    <script src="\', escape=False)\nresponse.write(URL(\'static\', \'js/web2py.js\'))\nresponse.write(\'"></script>\\n    <script src="\', escape=False)\nresponse.write(URL(\'static\', \'js/modernizr-2.8.3.min.js\'))\nresponse.write(\'"></script>\\n  </body>\\n</html>\\n\', escape=False)'
p7
sS'snapshot'
p8
(dp9
S'exception'
p10
(dp11
S'__module__'
p12
S"'sqlite3'"
p13
sS'__getslice__'
p14
S"<method-wrapper '__getslice__' of IntegrityError object>"
p15
sS'__str__'
p16
S"<method-wrapper '__str__' of IntegrityError object>"
p17
sS'__reduce__'
p18
S'<built-in method __reduce__ of IntegrityError object>'
p19
sS'__dict__'
p20
S'{}'
p21
sS'__sizeof__'
p22
S'<built-in method __sizeof__ of IntegrityError object>'
p23
sS'__weakref__'
p24
S'None'
p25
sS'__init__'
p26
S"<method-wrapper '__init__' of IntegrityError object>"
p27
sS'__setattr__'
p28
S"<method-wrapper '__setattr__' of IntegrityError object>"
p29
sS'__reduce_ex__'
p30
S'<built-in method __reduce_ex__ of IntegrityError object>'
p31
sS'__new__'
p32
S'<built-in method __new__ of type object>'
p33
sS'__format__'
p34
S'<built-in method __format__ of IntegrityError object>'
p35
sS'__class__'
p36
S"<class 'sqlite3.IntegrityError'>"
p37
sS'__doc__'
p38
S'None'
p39
sS'__getitem__'
p40
S"<method-wrapper '__getitem__' of IntegrityError object>"
p41
sS'__setstate__'
p42
S'<built-in method __setstate__ of IntegrityError object>'
p43
sS'__getattribute__'
p44
S"<method-wrapper '__getattribute__' of IntegrityError object>"
p45
sS'args'
p46
S"('FOREIGN KEY constraint failed',)"
p47
sS'__subclasshook__'
p48
S'<built-in method __subclasshook__ of type object>'
p49
sS'__unicode__'
p50
S'<built-in method __unicode__ of IntegrityError object>'
p51
sS'__delattr__'
p52
S"<method-wrapper '__delattr__' of IntegrityError object>"
p53
sS'__repr__'
p54
S"<method-wrapper '__repr__' of IntegrityError object>"
p55
sS'__hash__'
p56
S"<method-wrapper '__hash__' of IntegrityError object>"
p57
ssS'evalue'
p58
S'FOREIGN KEY constraint failed'
p59
sS'request'
p60
cgluon.html
XML_unpickle
p61
(S's~c\x00\x00<div><table><tr><td style="font-weight:bold;vertical-align:top;">ajax</td><td style="vertical-align:top;">:</td><td><div>False</div></td></tr><tr><td style="font-weight:bold;vertical-align:top;">application</td><td style="vertical-align:top;">:</td><td><div>prueba1</div></td></tr><tr><td style="font-weight:bold;vertical-align:top;">args</td><td style="vertical-align:top;">:</td><td><div><table><tr><td><div>logout</div></td></tr></table></div></td></tr><tr><td style="font-weight:bold;vertical-align:top;">cid</td><td style="vertical-align:top;">:</td><td><div>None</div></td></tr><tr><td style="font-weight:bold;vertical-align:top;">client</td><td style="vertical-align:top;">:</td><td><div>127.0.0.1</div></td></tr><tr><td style="font-weight:bold;vertical-align:top;">controller</td><td style="vertical-align:top;">:</td><td><div>default</div></td></tr><tr><td style="font-weight:bold;vertical-align:top;">cookies</td><td style="vertical-align:top;">:</td><td><div><table><tr><td style="font-weight:bold;vertical-align:top;">session_id_admin</td><td style="vertical-align:top;">:</td><td><div>127.0.0.1-96ddfa32-a67b-4d91-91a0-50ab11bafc8d<table><tr><td style="font-weight:bold;vertical-align:top;">comment</td><td style="vertical-align:top;">:</td><td><div></div></td></tr><tr><td style="font-weight:bold;vertical-align:top;">domain</td><td style="vertical-align:top;">:</td><td><div></div></td></tr><tr><td style="font-weight:bold;vertical-align:top;">expires</td><td style="vertical-align:top;">:</td><td><div></div></td></tr><tr><td style="font-weight:bold;vertical-align:top;">httponly</td><td style="vertical-align:top;">:</td><td><div></div></td></tr><tr><td style="font-weight:bold;vertical-align:top;">max-age</td><td style="vertical-align:top;">:</td><td><div></div></td></tr><tr><td style="font-weight:bold;vertical-align:top;">path</td><td style="vertical-align:top;">:</td><td><div></div></td></tr><tr><td style="font-weight:bold;vertical-align:top;">secure</td><td style="vertical-align:top;">:</td><td><div></div></td></tr><tr><td style="font-weight:bold;vertical-align:top;">version</td><td style="vertical-align:top;">:</td><td><div></div></td></tr></table></div></td></tr><tr><td style="font-weight:bold;vertical-align:top;">session_id_examples</td><td style="vertical-align:top;">:</td><td><div>True<table><tr><td style="font-weight:bold;vertical-align:top;">comment</td><td style="vertical-align:top;">:</td><td><div></div></td></tr><tr><td style="font-weight:bold;vertical-align:top;">domain</td><td style="vertical-align:top;">:</td><td><div></div></td></tr><tr><td style="font-weight:bold;vertical-align:top;">expires</td><td style="vertical-align:top;">:</td><td><div></div></td></tr><tr><td style="font-weight:bold;vertical-align:top;">httponly</td><td style="vertical-align:top;">:</td><td><div></div></td></tr><tr><td style="font-weight:bold;vertical-align:top;">max-age</td><td style="vertical-align:top;">:</td><td><div></div></td></tr><tr><td style="font-weight:bold;vertical-align:top;">path</td><td style="vertical-align:top;">:</td><td><div></div></td></tr><tr><td style="font-weight:bold;vertical-align:top;">secure</td><td style="vertical-align:top;">:</td><td><div></div></td></tr><tr><td style="font-weight:bold;vertical-align:top;">version</td><td style="vertical-align:top;">:</td><td><div></div></td></tr></table></div></td></tr><tr><td style="font-weight:bold;vertical-align:top;">session_id_prueba1</td><td style="vertical-align:top;">:</td><td><div>127.0.0.1-09d72392-1c58-46b2-813f-7842a2efa3c0<table><tr><td style="font-weight:bold;vertical-align:top;">comment</td><td style="vertical-align:top;">:</td><td><div></div></td></tr><tr><td style="font-weight:bold;vertical-align:top;">domain</td><td style="vertical-align:top;">:</td><td><div></div></td></tr><tr><td style="font-weight:bold;vertical-align:top;">expires</td><td style="vertical-align:top;">:</td><td><div></div></td></tr><tr><td style="font-weight:bold;vertical-align:top;">httponly</td><td style="vertical-align:top;">:</td><td><div></div></td></tr><tr><td style="font-weight:bold;vertical-align:top;">max-age</td><td style="vertical-align:top;">:</td><td><div></div></td></tr><tr><td style="font-weight:bold;vertical-align:top;">path</td><td style="vertical-align:top;">:</td><td><div></div></td></tr><tr><td style="font-weight:bold;vertical-align:top;">secure</td><td style="vertical-align:top;">:</td><td><div></div></td></tr><tr><td style="font-weight:bold;vertical-align:top;">version</td><td style="vertical-align:top;">:</td><td><div></div></td></tr></table></div></td></tr><tr><td style="font-weight:bold;vertical-align:top;">session_id_sigpie</td><td style="vertical-align:top;">:</td><td><div>127.0.0.1-9995d01b-562d-412e-a88c-6a78b6c2360f<table><tr><td style="font-weight:bold;vertical-align:top;">comment</td><td style="vertical-align:top;">:</td><td><div></div></td></tr><tr><td style="font-weight:bold;vertical-align:top;">domain</td><td style="vertical-align:top;">:</td><td><div></div></td></tr><tr><td style="font-weight:bold;vertical-align:top;">expires</td><td style="vertical-align:top;">:</td><td><div></div></td></tr><tr><td style="font-weight:bold;vertical-align:top;">httponly</td><td style="vertical-align:top;">:</td><td><div></div></td></tr><tr><td style="font-weight:bold;vertical-align:top;">max-age</td><td style="vertical-align:top;">:</td><td><div></div></td></tr><tr><td style="font-weight:bold;vertical-align:top;">path</td><td style="vertical-align:top;">:</td><td><div></div></td></tr><tr><td style="font-weight:bold;vertical-align:top;">secure</td><td style="vertical-align:top;">:</td><td><div></div></td></tr><tr><td style="font-weight:bold;vertical-align:top;">version</td><td style="vertical-align:top;">:</td><td><div></div></td></tr></table></div></td></tr><tr><td style="font-weight:bold;vertical-align:top;">session_id_welcome</td><td style="vertical-align:top;">:</td><td><div>127.0.0.1-a96d8357-ab57-42dd-94f3-214a9e136c87<table><tr><td style="font-weight:bold;vertical-align:top;">comment</td><td style="vertical-align:top;">:</td><td><div></div></td></tr><tr><td style="font-weight:bold;vertical-align:top;">domain</td><td style="vertical-align:top;">:</td><td><div></div></td></tr><tr><td style="font-weight:bold;vertical-align:top;">expires</td><td style="vertical-align:top;">:</td><td><div></div></td></tr><tr><td style="font-weight:bold;vertical-align:top;">httponly</td><td style="vertical-align:top;">:</td><td><div></div></td></tr><tr><td style="font-weight:bold;vertical-align:top;">max-age</td><td style="vertical-align:top;">:</td><td><div></div></td></tr><tr><td style="font-weight:bold;vertical-align:top;">path</td><td style="vertical-align:top;">:</td><td><div></div></td></tr><tr><td style="font-weight:bold;vertical-align:top;">secure</td><td style="vertical-align:top;">:</td><td><div></div></td></tr><tr><td style="font-weight:bold;vertical-align:top;">version</td><td style="vertical-align:top;">:</td><td><div></div></td></tr></table></div></td></tr></table></div></td></tr><tr><td style="font-weight:bold;vertical-align:top;">env</td><td style="vertical-align:top;">:</td><td><div><table><tr><td style="font-weight:bold;vertical-align:top;">HTTP_ACCEPT</td><td style="vertical-align:top;">:</td><td><div>text/html,application/xhtml+xml,application/xml;q=0.9,image/webp,*/*;q=0.8</div></td></tr><tr><td style="font-weight:bold;vertical-align:top;">HTTP_ACCEPT_ENCODING</td><td style="vertical-align:top;">:</td><td><div>gzip, deflate, sdch, br</div></td></tr><tr><td style="font-weight:bold;vertical-align:top;">HTTP_ACCEPT_LANGUAGE</td><td style="vertical-align:top;">:</td><td><div>en-US,en;q=0.8,es;q=0.6</div></td></tr><tr><td style="font-weight:bold;vertical-align:top;">HTTP_CONNECTION</td><td style="vertical-align:top;">:</td><td><div>keep-alive</div></td></tr><tr><td style="font-weight:bold;vertical-align:top;">HTTP_COOKIE</td><td style="vertical-align:top;">:</td><td><div>session_id_examples=True; session_id_sigpie=127.0.0.1-9995d01b-562d-412e-a88c-6a78b6c2360f; session_id_welcome=127.0.0.1-a96d8357-ab57-42dd-94f3-214a9e136c87; session_id_admin=127.0.0.1-96ddfa32-a67b-4d91-91a0-50ab11bafc8d; session_id_prueba1=127.0.0.1-09d72392-1c58-46b2-813f-7842a2efa3c0</div></td></tr><tr><td style="font-weight:bold;vertical-align:top;">HTTP_HOST</td><td style="vertical-align:top;">:</td><td><div>127.0.0.1:8000</div></td></tr><tr><td style="font-weight:bold;vertical-align:top;">HTTP_UPGRADE_INSECURE_REQUESTS</td><td style="vertical-align:top;">:</td><td><div>1</div></td></tr><tr><td style="font-weight:bold;vertical-align:top;">HTTP_USER_AGENT</td><td style="vertical-align:top;">:</td><td><div>Mozilla/5.0 (X11; Linux x86_64) AppleWebKit/537.36 (KHTML, like Gecko) Chrome/56.0.2924.87 Safari/537.36</div></td></tr><tr><td style="font-weight:bold;vertical-align:top;">PATH_INFO</td><td style="vertical-align:top;">:</td><td><div>/default/user/logout</div></td></tr><tr><td style="font-weight:bold;vertical-align:top;">QUERY_STRING</td><td style="vertical-align:top;">:</td><td><div></div></td></tr><tr><td style="font-weight:bold;vertical-align:top;">REMOTE_ADDR</td><td style="vertical-align:top;">:</td><td><div>127.0.0.1</div></td></tr><tr><td style="font-weight:bold;vertical-align:top;">REMOTE_PORT</td><td style="vertical-align:top;">:</td><td><div>37444</div></td></tr><tr><td style="font-weight:bold;vertical-align:top;">REQUEST_METHOD</td><td style="vertical-align:top;">:</td><td><div>GET</div></td></tr><tr><td style="font-weight:bold;vertical-align:top;">SCRIPT_NAME</td><td style="vertical-align:top;">:</td><td><div></div></td></tr><tr><td style="font-weight:bold;vertical-align:top;">SERVER_NAME</td><td style="vertical-align:top;">:</td><td><div>debian</div></td></tr><tr><td style="font-weight:bold;vertical-align:top;">SERVER_PORT</td><td style="vertical-align:top;">:</td><td><div>8000</div></td></tr><tr><td style="font-weight:bold;vertical-align:top;">SERVER_PROTOCOL</td><td style="vertical-align:top;">:</td><td><div>HTTP/1.1</div></td></tr><tr><td style="font-weight:bold;vertical-align:top;">SERVER_SOFTWARE</td><td style="vertical-align:top;">:</td><td><div>Rocket 1.2.6</div></td></tr><tr><td style="font-weight:bold;vertical-align:top;">app_folders</td><td style="vertical-align:top;">:</td><td><div>set([&#x27;/home/julio/Downloads/SIGPIE-Presentacion1/applications/prueba1/&#x27;])</div></td></tr><tr><td style="font-weight:bold;vertical-align:top;">applications_parent</td><td style="vertical-align:top;">:</td><td><div>/home/julio/Downloads/SIGPIE-Presentacion1</div></td></tr><tr><td style="font-weight:bold;vertical-align:top;">cmd_args</td><td style="vertical-align:top;">:</td><td><div><table></table></div></td></tr><tr><td style="font-weight:bold;vertical-align:top;">cmd_options</td><td style="vertical-align:top;">:</td><td><div>&lt;Values at 0x7fd175d83fc8: {&#x27;verbose&#x27;: False, &#x27;ip&#x27;: &#x27;127.0.0.1&#x27;, &#x27;debuglevel&#x27;: 30, &#x27;with_scheduler&#x27;: False, &#x27;shutdown_timeout&#x27;: 5, &#x27;taskbar&#x27;: False, &#x27;with_coverage&#x27;: False, &#x27;pid_filename&#x27;: &#x27;httpserver.pid&#x27;, &#x27;maxthreads&#x27;: None, &#x27;softcron&#x27;: False, &#x27;server_name&#x27;: &#x27;debian&#x27;, &#x27;bpython&#x27;: False, &#x27;nogui&#x27;: False, &#x27;port&#x27;: 8000, &#x27;print_errors&#x27;: False, &#x27;extcron&#x27;: False, &#x27;runcron&#x27;: False, &#x27;run_system_tests&#x27;: False, &#x27;test&#x27;: None, &#x27;folder&#x27;: &#x27;/home/julio/Downloads/SIGPIE-Presentacion1&#x27;, &#x27;config&#x27;: &#x27;&#x27;, &#x27;minthreads&#x27;: None, &#x27;shell&#x27;: None, &#x27;run&#x27;: &#x27;&#x27;, &#x27;log_filename&#x27;: &#x27;httpserver.log&#x27;, &#x27;profiler_dir&#x27;: None, &#x27;args&#x27;: [&#x27;&#x27;], &#x27;socket_timeout&#x27;: 5, &#x27;ssl_ca_certificate&#x27;: None, &#x27;scheduler&#x27;: None, &#x27;interfaces&#x27;: None, &#x27;ssl_private_key&#x27;: &#x27;&#x27;, &#x27;gae&#x27;: None, &#x27;password&#x27;: &#x27;******&#x27;, &#x27;request_queue_size&#x27;: 5, &#x27;ssl_certificate&#x27;: &#x27;&#x27;, &#x27;cronjob&#x27;: False, &#x27;numthreads&#x27;: None, &#x27;quiet&#x27;: False, &#x27;import_models&#x27;: False, &#x27;timeout&#x27;: 10, &#x27;plain&#x27;: False, &#x27;nobanner&#x27;: False}&gt;</div></td></tr><tr><td style="font-weight:bold;vertical-align:top;">db_sessions</td><td style="vertical-align:top;">:</td><td><div>set([])</div></td></tr><tr><td style="font-weight:bold;vertical-align:top;">debugging</td><td style="vertical-align:top;">:</td><td><div>False</div></td></tr><tr><td style="font-weight:bold;vertical-align:top;">gluon_parent</td><td style="vertical-align:top;">:</td><td><div>/home/julio/Downloads/SIGPIE-Presentacion1</div></td></tr><tr><td style="font-weight:bold;vertical-align:top;">http_accept</td><td style="vertical-align:top;">:</td><td><div>text/html,application/xhtml+xml,application/xml;q=0.9,image/webp,*/*;q=0.8</div></td></tr><tr><td style="font-weight:bold;vertical-align:top;">http_accept_encoding</td><td style="vertical-align:top;">:</td><td><div>gzip, deflate, sdch, br</div></td></tr><tr><td style="font-weight:bold;vertical-align:top;">http_accept_language</td><td style="vertical-align:top;">:</td><td><div>en-US,en;q=0.8,es;q=0.6</div></td></tr><tr><td style="font-weight:bold;vertical-align:top;">http_connection</td><td style="vertical-align:top;">:</td><td><div>keep-alive</div></td></tr><tr><td style="font-weight:bold;vertical-align:top;">http_cookie</td><td style="vertical-align:top;">:</td><td><div>session_id_examples=True; session_id_sigpie=127.0.0.1-9995d01b-562d-412e-a88c-6a78b6c2360f; session_id_welcome=127.0.0.1-a96d8357-ab57-42dd-94f3-214a9e136c87; session_id_admin=127.0.0.1-96ddfa32-a67b-4d91-91a0-50ab11bafc8d; session_id_prueba1=127.0.0.1-09d72392-1c58-46b2-813f-7842a2efa3c0</div></td></tr><tr><td style="font-weight:bold;vertical-align:top;">http_host</td><td style="vertical-align:top;">:</td><td><div>127.0.0.1:8000</div></td></tr><tr><td style="font-weight:bold;vertical-align:top;">http_upgrade_insecure_requests</td><td style="vertical-align:top;">:</td><td><div>1</div></td></tr><tr><td style="font-weight:bold;vertical-align:top;">http_user_agent</td><td style="vertical-align:top;">:</td><td><div>Mozilla/5.0 (X11; Linux x86_64) AppleWebKit/537.36 (KHTML, like Gecko) Chrome/56.0.2924.87 Safari/537.36</div></td></tr><tr><td style="font-weight:bold;vertical-align:top;">is_jython</td><td style="vertical-align:top;">:</td><td><div>False</div></td></tr><tr><td style="font-weight:bold;vertical-align:top;">is_pypy</td><td style="vertical-align:top;">:</td><td><div>False</div></td></tr><tr><td style="font-weight:bold;vertical-align:top;">is_source</td><td style="vertical-align:top;">:</td><td><div>True</div></td></tr><tr><td style="font-weight:bold;vertical-align:top;">local_hosts</td><td style="vertical-align:top;">:</td><td><div><table><tr><td><div>::1</div></td></tr><tr><td><div>127.0.1.1</div></td></tr><tr><td><div>::ffff:127.0.0.1</div></td></tr><tr><td><div>127.0.0.1</div></td></tr><tr><td><div>debian</div></td></tr></table></div></td></tr><tr><td style="font-weight:bold;vertical-align:top;">path_info</td><td style="vertical-align:top;">:</td><td><div>/default/user/logout</div></td></tr><tr><td style="font-weight:bold;vertical-align:top;">query_string</td><td style="vertical-align:top;">:</td><td><div></div></td></tr><tr><td style="font-weight:bold;vertical-align:top;">remote_addr</td><td style="vertical-align:top;">:</td><td><div>127.0.0.1</div></td></tr><tr><td style="font-weight:bold;vertical-align:top;">remote_port</td><td style="vertical-align:top;">:</td><td><div>37444</div></td></tr><tr><td style="font-weight:bold;vertical-align:top;">request_method</td><td style="vertical-align:top;">:</td><td><div>GET</div></td></tr><tr><td style="font-weight:bold;vertical-align:top;">request_uri</td><td style="vertical-align:top;">:</td><td><div>/prueba1/default/user/logout</div></td></tr><tr><td style="font-weight:bold;vertical-align:top;">script_name</td><td style="vertical-align:top;">:</td><td><div></div></td></tr><tr><td style="font-weight:bold;vertical-align:top;">server_name</td><td style="vertical-align:top;">:</td><td><div>debian</div></td></tr><tr><td style="font-weight:bold;vertical-align:top;">server_port</td><td style="vertical-align:top;">:</td><td><div>8000</div></td></tr><tr><td style="font-weight:bold;vertical-align:top;">server_protocol</td><td style="vertical-align:top;">:</td><td><div>HTTP/1.1</div></td></tr><tr><td style="font-weight:bold;vertical-align:top;">server_software</td><td style="vertical-align:top;">:</td><td><div>Rocket 1.2.6</div></td></tr><tr><td style="font-weight:bold;vertical-align:top;">web2py_original_uri</td><td style="vertical-align:top;">:</td><td><div>/default/user/logout</div></td></tr><tr><td style="font-weight:bold;vertical-align:top;">web2py_path</td><td style="vertical-align:top;">:</td><td><div>/home/julio/Downloads/SIGPIE-Presentacion1</div></td></tr><tr><td style="font-weight:bold;vertical-align:top;">web2py_version</td><td style="vertical-align:top;">:</td><td><div>2.14.6-stable+timestamp.2016.05.10.00.21.47</div></td></tr><tr><td style="font-weight:bold;vertical-align:top;">wsgi.errors</td><td style="vertical-align:top;">:</td><td><div>&lt;open file &#x27;&lt;stderr&gt;&#x27;, mode &#x27;w&#x27; at 0x7fd17ca0f1e0&gt;</div></td></tr><tr><td style="font-weight:bold;vertical-align:top;">wsgi.file_wrapper</td><td style="vertical-align:top;">:</td><td><div>&lt;class wsgiref.util.FileWrapper at 0x7fd175e19d50&gt;</div></td></tr><tr><td style="font-weight:bold;vertical-align:top;">wsgi.input</td><td style="vertical-align:top;">:</td><td><div>&lt;socket._fileobject object at 0x7fd16c3f8bd0&gt;</div></td></tr><tr><td style="font-weight:bold;vertical-align:top;">wsgi.multiprocess</td><td style="vertical-align:top;">:</td><td><div>False</div></td></tr><tr><td style="font-weight:bold;vertical-align:top;">wsgi.multithread</td><td style="vertical-align:top;">:</td><td><div>True</div></td></tr><tr><td style="font-weight:bold;vertical-align:top;">wsgi.run_once</td><td style="vertical-align:top;">:</td><td><div>False</div></td></tr><tr><td style="font-weight:bold;vertical-align:top;">wsgi.url_scheme</td><td style="vertical-align:top;">:</td><td><div>http</div></td></tr><tr><td style="font-weight:bold;vertical-align:top;">wsgi.version</td><td style="vertical-align:top;">:</td><td><div><table><tr><td><div>1</div></td></tr><tr><td><div>0</div></td></tr></table></div></td></tr><tr><td style="font-weight:bold;vertical-align:top;">wsgi_errors</td><td style="vertical-align:top;">:</td><td><div>&lt;open file &#x27;&lt;stderr&gt;&#x27;, mode &#x27;w&#x27; at 0x7fd17ca0f1e0&gt;</div></td></tr><tr><td style="font-weight:bold;vertical-align:top;">wsgi_file_wrapper</td><td style="vertical-align:top;">:</td><td><div>&lt;class wsgiref.util.FileWrapper at 0x7fd175e19d50&gt;</div></td></tr><tr><td style="font-weight:bold;vertical-align:top;">wsgi_input</td><td style="vertical-align:top;">:</td><td><div>&lt;socket._fileobject object at 0x7fd16c3f8bd0&gt;</div></td></tr><tr><td style="font-weight:bold;vertical-align:top;">wsgi_multiprocess</td><td style="vertical-align:top;">:</td><td><div>False</div></td></tr><tr><td style="font-weight:bold;vertical-align:top;">wsgi_multithread</td><td style="vertical-align:top;">:</td><td><div>True</div></td></tr><tr><td style="font-weight:bold;vertical-align:top;">wsgi_run_once</td><td style="vertical-align:top;">:</td><td><div>False</div></td></tr><tr><td style="font-weight:bold;vertical-align:top;">wsgi_url_scheme</td><td style="vertical-align:top;">:</td><td><div>http</div></td></tr><tr><td style="font-weight:bold;vertical-align:top;">wsgi_version</td><td style="vertical-align:top;">:</td><td><div><table><tr><td><div>1</div></td></tr><tr><td><div>0</div></td></tr></table></div></td></tr></table></div></td></tr><tr><td style="font-weight:bold;vertical-align:top;">extension</td><td style="vertical-align:top;">:</td><td><div>html</div></td></tr><tr><td style="font-weight:bold;vertical-align:top;">folder</td><td style="vertical-align:top;">:</td><td><div>/home/julio/Downloads/SIGPIE-Presentacion1/applications/prueba1/</div></td></tr><tr><td style="font-weight:bold;vertical-align:top;">function</td><td style="vertical-align:top;">:</td><td><div>user</div></td></tr><tr><td style="font-weight:bold;vertical-align:top;">global_settings</td><td style="vertical-align:top;">:</td><td><div><table><tr><td style="font-weight:bold;vertical-align:top;">app_folders</td><td style="vertical-align:top;">:</td><td><div>set([&#x27;/home/julio/Downloads/SIGPIE-Presentacion1/applications/prueba1/&#x27;])</div></td></tr><tr><td style="font-weight:bold;vertical-align:top;">applications_parent</td><td style="vertical-align:top;">:</td><td><div>/home/julio/Downloads/SIGPIE-Presentacion1</div></td></tr><tr><td style="font-weight:bold;vertical-align:top;">cmd_args</td><td style="vertical-align:top;">:</td><td><div><table></table></div></td></tr><tr><td style="font-weight:bold;vertical-align:top;">cmd_options</td><td style="vertical-align:top;">:</td><td><div>&lt;Values at 0x7fd175d83fc8: {&#x27;verbose&#x27;: False, &#x27;ip&#x27;: &#x27;127.0.0.1&#x27;, &#x27;debuglevel&#x27;: 30, &#x27;with_scheduler&#x27;: False, &#x27;shutdown_timeout&#x27;: 5, &#x27;taskbar&#x27;: False, &#x27;with_coverage&#x27;: False, &#x27;pid_filename&#x27;: &#x27;httpserver.pid&#x27;, &#x27;maxthreads&#x27;: None, &#x27;softcron&#x27;: False, &#x27;server_name&#x27;: &#x27;debian&#x27;, &#x27;bpython&#x27;: False, &#x27;nogui&#x27;: False, &#x27;port&#x27;: 8000, &#x27;print_errors&#x27;: False, &#x27;extcron&#x27;: False, &#x27;runcron&#x27;: False, &#x27;run_system_tests&#x27;: False, &#x27;test&#x27;: None, &#x27;folder&#x27;: &#x27;/home/julio/Downloads/SIGPIE-Presentacion1&#x27;, &#x27;config&#x27;: &#x27;&#x27;, &#x27;minthreads&#x27;: None, &#x27;shell&#x27;: None, &#x27;run&#x27;: &#x27;&#x27;, &#x27;log_filename&#x27;: &#x27;httpserver.log&#x27;, &#x27;profiler_dir&#x27;: None, &#x27;args&#x27;: [&#x27;&#x27;], &#x27;socket_timeout&#x27;: 5, &#x27;ssl_ca_certificate&#x27;: None, &#x27;scheduler&#x27;: None, &#x27;interfaces&#x27;: None, &#x27;ssl_private_key&#x27;: &#x27;&#x27;, &#x27;gae&#x27;: None, &#x27;password&#x27;: &#x27;******&#x27;, &#x27;request_queue_size&#x27;: 5, &#x27;ssl_certificate&#x27;: &#x27;&#x27;, &#x27;cronjob&#x27;: False, &#x27;numthreads&#x27;: None, &#x27;quiet&#x27;: False, &#x27;import_models&#x27;: False, &#x27;timeout&#x27;: 10, &#x27;plain&#x27;: False, &#x27;nobanner&#x27;: False}&gt;</div></td></tr><tr><td style="font-weight:bold;vertical-align:top;">db_sessions</td><td style="vertical-align:top;">:</td><td><div>set([])</div></td></tr><tr><td style="font-weight:bold;vertical-align:top;">debugging</td><td style="vertical-align:top;">:</td><td><div>False</div></td></tr><tr><td style="font-weight:bold;vertical-align:top;">gluon_parent</td><td style="vertical-align:top;">:</td><td><div>/home/julio/Downloads/SIGPIE-Presentacion1</div></td></tr><tr><td style="font-weight:bold;vertical-align:top;">is_jython</td><td style="vertical-align:top;">:</td><td><div>False</div></td></tr><tr><td style="font-weight:bold;vertical-align:top;">is_pypy</td><td style="vertical-align:top;">:</td><td><div>False</div></td></tr><tr><td style="font-weight:bold;vertical-align:top;">is_source</td><td style="vertical-align:top;">:</td><td><div>True</div></td></tr><tr><td style="font-weight:bold;vertical-align:top;">local_hosts</td><td style="vertical-align:top;">:</td><td><div><table><tr><td><div>::1</div></td></tr><tr><td><div>127.0.1.1</div></td></tr><tr><td><div>::ffff:127.0.0.1</div></td></tr><tr><td><div>127.0.0.1</div></td></tr><tr><td><div>debian</div></td></tr></table></div></td></tr><tr><td style="font-weight:bold;vertical-align:top;">web2py_version</td><td style="vertical-align:top;">:</td><td><div>2.14.6-stable+timestamp.2016.05.10.00.21.47</div></td></tr></table></div></td></tr><tr><td style="font-weight:bold;vertical-align:top;">is_https</td><td style="vertical-align:top;">:</td><td><div>False</div></td></tr><tr><td style="font-weight:bold;vertical-align:top;">is_local</td><td style="vertical-align:top;">:</td><td><div>True</div></td></tr><tr><td style="font-weight:bold;vertical-align:top;">is_restful</td><td style="vertical-align:top;">:</td><td><div>False</div></td></tr><tr><td style="font-weight:bold;vertical-align:top;">is_scheduler</td><td style="vertical-align:top;">:</td><td><div>False</div></td></tr><tr><td style="font-weight:bold;vertical-align:top;">is_shell</td><td style="vertical-align:top;">:</td><td><div>False</div></td></tr><tr><td style="font-weight:bold;vertical-align:top;">now</td><td style="vertical-align:top;">:</td><td><div>datetime.datetime(2017, 2, 19, 18, 13, 57, 575955)</div></td></tr><tr><td style="font-weight:bold;vertical-align:top;">url</td><td style="vertical-align:top;">:</td><td><div>/default/user/logout</div></td></tr><tr><td style="font-weight:bold;vertical-align:top;">utcnow</td><td style="vertical-align:top;">:</td><td><div>datetime.datetime(2017, 2, 19, 22, 13, 57, 575970)</div></td></tr><tr><td style="font-weight:bold;vertical-align:top;">wsgi</td><td style="vertical-align:top;">:</td><td><div>&lt;gluon.main.LazyWSGI object at 0x7fd16c2c4490&gt;</div></td></tr></table></div>'
tRp62
sS'frames'
p63
(lp64
(dp65
S'file'
p66
S'/home/julio/Downloads/SIGPIE-Presentacion1/gluon/restricted.py'
p67
sS'dump'
p68
(dp69
S'environment'
p70
S"{'A': <class 'gluon.html.A'>, 'ANY_OF': <class 'gluon.validators.ANY_OF'>, 'ASSIGNJS': <function ASSIGNJS>, 'Auth': <class 'gluon.tools.Auth'>, 'B': <class 'gluon.html.B'>, 'BEAUTIFY': <class 'gluon.html.BEAUTIFY'>, 'BODY': <class 'gluon.html.BODY'>, 'BR': <class 'gluon.html.BR'>, 'BUTTON': <class 'gluon.html.BUTTON'>, 'CAT': <class 'gluon.html.CAT'>, ...}"
p71
sS'ccode'
p72
S'<code object <module> at 0x7fd16c3f8db0, file "/...cations/prueba1/views/default/user.html", line 1>'
p73
ssS'lnum'
p74
I227
sS'lines'
p75
(dp76
I224
S'            ccode = code'
p77
sI225
S'        else:'
p78
sI226
S'            ccode = compile2(code, layer)'
p79
sI227
S'        exec ccode in environment'
p80
sI228
S'    except HTTP:'
p81
sI229
S'        raise'
p82
sI230
S'    except RestrictedError:'
p83
sI231
S'        # do not encapsulate (obfuscate) the original RestrictedError'
p84
sI222
S'    try:'
p85
sI223
S'        if isinstance(code, types.CodeType):'
p86
ssS'call'
p87
S'(code=\'response.write(\\\'<!DOCTYPE html>\\\\n\\\', escape=False..."></script>\\\\n  </body>\\\\n</html>\\\\n\\\', escape=False)\', environment={\'A\': <class \'gluon.html.A\'>, \'ANY_OF\': <class \'gluon.validators.ANY_OF\'>, \'ASSIGNJS\': <function ASSIGNJS>, \'Auth\': <class \'gluon.tools.Auth\'>, \'B\': <class \'gluon.html.B\'>, \'BEAUTIFY\': <class \'gluon.html.BEAUTIFY\'>, \'BODY\': <class \'gluon.html.BODY\'>, \'BR\': <class \'gluon.html.BR\'>, \'BUTTON\': <class \'gluon.html.BUTTON\'>, \'CAT\': <class \'gluon.html.CAT\'>, ...}, layer=\'/home/julio/Downloads/SIGPIE-Presentacion1/applications/prueba1/views/default/user.html\')'
p88
sS'func'
p89
S'restricted'
p90
sa(dp91
g66
S'/home/julio/Downloads/SIGPIE-Presentacion1/applications/prueba1/views/default/user.html'
p92
sg68
(dp93
S'box'
p94
S'undefined'
p95
sS'moz'
p96
g95
sS'sizing'
p97
g95
sS'border'
p98
g95
ssg74
I23
sg75
(dp99
I32
S"response.write('\\n<footer>\\n        <p>&copy; 2017 DRIC USB </p>\\n      </footer>\\n', escape=False)"
p100
sI33
S'response.write(\'\\n    </div><!-- /.container -->\\n\\n\\n    <!-- Bootstrap core JavaScript\\n    ================================================== -->\\n    <!-- Placed at the end of the document so the pages load faster -->\\n    <script src="\', escape=False)'
p101
sI14
S'response.write(\'">SIGPIE</a>\\n          </div>\\n\\n          <div id="navbar" class="navbar-collapse collapse">\\n            <ul class="nav navbar-nav">\\n\\n            </ul>\\n\\n            <ul class="nav navbar-nav navbar-right">\\n              <li class="dropdown" style="font-size: 1em; font-family: Arial">\\n                    <a href="" class="dropdown-toggle" data-toggle="dropdown" role="button" aria-haspopup="true" aria-expanded="false" >Iniciar Sesi\\xc3\\xb3n<span class="caret"></span></a>\\n                    <ul class="dropdown-menu">\\n                      <li style="font-size: 1em; font-family: Arial"><a href="\', escape=False)'
p102
sI15
S"response.write(URL('register'))"
p103
sI16
S'response.write(\'">Registrarse</a></li>\\n                      <li style="font-size: 1em; font-family: Arial"><a href="#">\\xc2\\xbfOlvidaste tu Contrase\\xc3\\xb1a?</a></li>\\n                      <li role="separator" class="divider"></li>\\n                      <li style="font-size: 1em; font-family: Arial"><a href="\', escape=False)'
p104
sI17
S"response.write(URL('user'))"
p105
sI18
S'response.write(\'">Iniciar Sesi\\xc3\\xb3n</a></li>\\n                  </li>\\n            </ul>\\n          </div>\\n        </div>\\n      </nav>\\n    </div>\\n\\n    \', escape=False)'
p106
sI19
S"response.write('\\n\\n    <!-- Carousel\\n    ================================================== -->\\n    ', escape=False)"
p107
sI20
S"response.write('\\n', escape=False)"
p108
sI21
S'response.write(\'\\n    <!-- Marketing messaging and featurettes\\n    ================================================== -->\\n    <!-- Wrap the rest of the page in another container to center all the content. -->\\n    <div class="container marketing">\\n      \', escape=False)'
p109
sI22
S"response.write('\\n\\n  <!--', escape=False)"
p110
sI23
S'response.write(auth())'
p111
sI24
S'response.write(\'-->\\n  <div class="container">\\n\\n    <div class="row" id="pwd-container">\\n      <div class="col-md-4"></div>\\n\\n      <div class="col-md-4">\\n        <section class="login-form">\\n          <form method="post" role="login">\\n            <img src="http://noticias.universia.edu.ve/ve/images/migracion/132x228/c/cl/climatico.jpg" class="img-responsive" alt="" />\\n            <!--input type="email" name="email" placeholder="Email" required class="form-control input-lg"/>\\n\\n            <input type="password" class="form-control input-lg" id="password" placeholder="Password" required="" /-->\\n\\n\\n            <div class="pwstrength_viewport_progress"></div>\\n\\n\\n            <!--button type="submit" name="go" class="btn btn-lg btn-primary btn-block">Sign in</button-->\\n            <div>\\n              \', escape=False)'
p112
sI25
S'response.write(login)'
p113
sI26
S'response.write(\'\\n              <a href="\', escape=False)'
p114
sI27
S"response.write(URL('register'))"
p115
sI28
S'response.write(\'">Crear cuenta</a> o <a href="#">restablecer contrase\\xc3\\xb1a</a>\\n            </div>\\n          </form>\\n\\n          <div class="form-links">\\n          </div>\\n        </section>\\n        </div>\\n\\n        <div class="col-md-4"></div>\\n\\n\\n    </div>\\n\\n    <p>\\n      <br>\\n      <br>\\n\\n    </p>\\n\\n\\n  </div>\\n\', escape=False)'
p116
sI29
S'response.write(\'\\n\\n      <!-- START THE FEATURETTES -->\\n      <hr class="featurette-divider">\\n      \', escape=False)'
p117
sI30
S"response.write('\\n\\n', escape=False)"
p118
sI31
S"response.write('\\n      <!-- /END THE FEATURETTES -->\\n\\n\\n      <!-- FOOTER -->\\n      ', escape=False)"
p119
ssg87
S'()'
p120
sg89
S'<module>'
p121
sa(dp122
g66
S'/home/julio/Downloads/SIGPIE-Presentacion1/gluon/tools.py'
p123
sg68
(dp124
S'self'
p125
S'<gluon.tools.Auth object>'
p126
sS'args'
p127
S"['logout']"
p128
sS'builtingetattr'
p129
S'<built-in function getattr>'
p130
ssg74
I1941
sg75
(dp131
I1936
S"                       'impersonate', 'not_authorized', 'confirm_registration',"
p132
sI1937
S"                       'bulk_register', 'manage_tokens', 'jwt'):"
p133
sI1938
S"            if len(request.args) >= 2 and args[0] == 'impersonate':"
p134
sI1939
S'                return getattr(self, args[0])(request.args[1])'
p135
sI1940
S'            else:'
p136
sI1941
S'                return getattr(self, args[0])()'
p137
sI1942
S"        elif args[0] == 'cas' and not self.settings.cas_provider:"
p138
sI1943
S"            if args(1) == self.settings.cas_actions['login']:"
p139
sI1944
S'                return self.cas_login(version=2)'
p140
sI1945
S"            elif args(1) == self.settings.cas_actions['validate']:"
p141
ssg87
S'(self=<gluon.tools.Auth object>)'
p142
sg89
S'__call__'
p143
sa(dp144
g66
S'/home/julio/Downloads/SIGPIE-Presentacion1/gluon/tools.py'
p145
sg68
(dp146
S'self'
p147
S'<gluon.tools.Auth object>'
p148
sS'self.user'
p149
S"<Row {'first_name': 'julio', 'last_name': 'fuenm...gistration_key': '', 'email': '13-10488@usb.ve'}>"
p150
sS'self.log_event'
p151
S'<bound method Auth.log_event of <gluon.tools.Auth object>>'
p152
sS'log'
p153
S"'User %(id)s Logged-out'"
p154
ssg74
I3235
sg75
(dp155
I3232
S'        if log is DEFAULT:'
p156
sI3233
S"            log = self.messages['logout_log']"
p157
sI3234
S'        if self.user:'
p158
sI3235
S'            self.log_event(log, self.user)'
p159
sI3236
S'        if self.settings.login_form != self:'
p160
sI3237
S'            cas = self.settings.login_form'
p161
sI3238
S'            cas_user = cas.get_user()'
p162
sI3239
S'            if cas_user:'
p163
sI3230
S'        if onlogout:'
p164
sI3231
S'            onlogout(self.user)'
p165
ssg87
S"(self=<gluon.tools.Auth object>, next='/home', onlogout=None, log='User %(id)s Logged-out')"
p166
sg89
S'logout'
p167
sa(dp168
g66
S'/home/julio/Downloads/SIGPIE-Presentacion1/gluon/tools.py'
p169
sg68
(dp170
S'origin'
p171
S"'auth'"
p172
sS'user_id'
p173
S'2L'
p174
sS'description'
p175
S"'User %(id)s Logged-out'"
p176
sS'vars'
p177
S"<Row {'first_name': 'julio', 'last_name': 'fuenm...gistration_key': '', 'email': '13-10488@usb.ve'}>"
p178
sS'builtinstr'
p179
S"<type 'str'>"
p180
sS').insert'
p181
g95
sS'self.table_event'
p182
S'<bound method Auth.table_event of <gluon.tools.Auth object>>'
p183
sS'self'
p184
S'<gluon.tools.Auth object>'
p185
ssg74
I2530
sg75
(dp186
I2528
S"        if type(description).__name__ == 'lazyT':"
p187
sI2529
S'            description = description.m'
p188
sI2530
S'        self.table_event().insert(description=str(description % vars), origin=origin, user_id=user_id)'
p189
sI2531
S''
sI2532
S"    def get_or_create_user(self, keys, update_fields=['email'],"
p190
sI2533
S'                           login=True, get=True):'
p191
sI2534
S'        """'
p192
sI2525
S'            user_id = None  # user unknown'
p193
sI2526
S'        vars = vars or {}'
p194
sI2527
S'        # log messages should not be translated'
p195
ssg87
S"(self=<gluon.tools.Auth object>, description='User %(id)s Logged-out', vars=<Row {'first_name': 'julio', 'last_name': 'fuenm...gistration_key': '', 'email': '13-10488@usb.ve'}>, origin='auth')"
p196
sg89
S'log_event'
p197
sa(dp198
g66
S'/home/julio/Downloads/SIGPIE-Presentacion1/gluon/packages/dal/pydal/objects.py'
p199
sg68
(dp200
S'self._listify'
p201
S'<bound method Table._listify of <Table auth_even...stamp, client_ip, user_id, origin, description)>>'
p202
sS'fields'
p203
S"{'client_ip': '127.0.0.1', 'description': 'User 2 Logged-out', 'origin': 'auth', 'time_stamp': datetime.datetime(2017, 2, 19, 18, 13, 57, 575955), 'user_id': 2L}"
p204
sS'self'
p205
S'<Table auth_event (id, time_stamp, client_ip, user_id, origin, description)>'
p206
sS'ret'
p207
g95
sS'self._db._adapter'
p208
S'<pydal.adapters.sqlite.SQLiteAdapter object>'
p209
sS'self._db._adapter.insert'
p210
S'<bound method SQLiteAdapter.insert of <pydal.adapters.sqlite.SQLiteAdapter object>>'
p211
sS'self._db'
p212
S'<DAL uri="sqlite://storage.sqlite">'
p213
ssg74
I726
sg75
(dp214
I721
S'    def insert(self, **fields):'
p215
sI722
S'        fields = self._defaults(fields)'
p216
sI723
S'        self._attempt_upload(fields)'
p217
sI724
S'        if any(f(fields) for f in self._before_insert):'
p218
sI725
S'            return 0'
p219
sI726
S'        ret = self._db._adapter.insert(self, self._listify(fields))'
p220
sI727
S'        if ret and self._after_insert:'
p221
sI728
S'            fields = Row(fields)'
p222
sI729
S'            [f(fields, ret) for f in self._after_insert]'
p223
sI730
S'        return ret'
p224
ssg87
S"(self=<Table auth_event (id, time_stamp, client_ip, user_id, origin, description)>, **fields={'client_ip': '127.0.0.1', 'description': 'User 2 Logged-out', 'origin': 'auth', 'time_stamp': datetime.datetime(2017, 2, 19, 18, 13, 57, 575955), 'user_id': 2L})"
p225
sg89
S'insert'
p226
sa(dp227
g66
S'/home/julio/Downloads/SIGPIE-Presentacion1/gluon/packages/dal/pydal/adapters/base.py'
p228
sg68
(dp229
S'e'
S"IntegrityError('FOREIGN KEY constraint failed',)"
p230
ssg74
I746
sg75
(dp231
I741
S'            self.execute(query)'
p232
sI742
S'        except Exception:'
p233
sI743
S'            e = sys.exc_info()[1]'
p234
sI744
S"            if hasattr(table,'_on_insert_error'):"
p235
sI745
S'                return table._on_insert_error(table,fields,e)'
p236
sI746
S'            raise e'
p237
sI747
S"        if hasattr(table, '_primarykey'):"
p238
sI748
S'            mydict = dict([(k[0].name, k[1]) for k in fields if k[0].name in table._primarykey])'
p239
sI749
S'            if mydict != {}:'
p240
sI750
S'                return mydict'
p241
ssg87
S"(self=<pydal.adapters.sqlite.SQLiteAdapter object>, table=<Table auth_event (id, time_stamp, client_ip, user_id, origin, description)>, fields=[(<pydal.objects.Field object>, 'auth'), (<pydal.objects.Field object>, datetime.datetime(2017, 2, 19, 18, 13, 57, 575955)), (<pydal.objects.Field object>, '127.0.0.1'), (<pydal.objects.Field object>, 2L), (<pydal.objects.Field object>, 'User 2 Logged-out')])"
p242
sg89
g226
sasS'pyver'
p243
S'Python 2.7.9: /usr/bin/python (prefix: /usr)'
p244
sS'session'
p245
g61
(S's/\x0b\x00\x00<div><table><tr><td style="font-weight:bold;vertical-align:top;">auth</td><td style="vertical-align:top;">:</td><td><div><table><tr><td style="font-weight:bold;vertical-align:top;">expiration</td><td style="vertical-align:top;">:</td><td><div>3600</div></td></tr><tr><td style="font-weight:bold;vertical-align:top;">hmac_key</td><td style="vertical-align:top;">:</td><td><div>f09f5e36-ec59-417f-b9e9-4a234407906b</div></td></tr><tr><td style="font-weight:bold;vertical-align:top;">last_visit</td><td style="vertical-align:top;">:</td><td><div>datetime.datetime(2017, 2, 19, 18, 11, 16, 656268)</div></td></tr><tr><td style="font-weight:bold;vertical-align:top;">remember_me</td><td style="vertical-align:top;">:</td><td><div>False</div></td></tr><tr><td style="font-weight:bold;vertical-align:top;">user</td><td style="vertical-align:top;">:</td><td><div><table><tr><td style="font-weight:bold;vertical-align:top;">email</td><td style="vertical-align:top;">:</td><td><div>13-10488@usb.ve</div></td></tr><tr><td style="font-weight:bold;vertical-align:top;">first_name</td><td style="vertical-align:top;">:</td><td><div>julio</div></td></tr><tr><td style="font-weight:bold;vertical-align:top;">id</td><td style="vertical-align:top;">:</td><td><div>2L</div></td></tr><tr><td style="font-weight:bold;vertical-align:top;">last_name</td><td style="vertical-align:top;">:</td><td><div>fuenmayo</div></td></tr><tr><td style="font-weight:bold;vertical-align:top;">registration_id</td><td style="vertical-align:top;">:</td><td><div></div></td></tr><tr><td style="font-weight:bold;vertical-align:top;">registration_key</td><td style="vertical-align:top;">:</td><td><div></div></td></tr><tr><td style="font-weight:bold;vertical-align:top;">reset_password_key</td><td style="vertical-align:top;">:</td><td><div></div></td></tr></table></div></td></tr><tr><td style="font-weight:bold;vertical-align:top;">user_groups</td><td style="vertical-align:top;">:</td><td><div><table><tr><td style="font-weight:bold;vertical-align:top;">2</td><td style="vertical-align:top;">:</td><td><div>user_2</div></td></tr></table></div></td></tr></table></div></td></tr><tr><td style="font-weight:bold;vertical-align:top;">auth_two_factor</td><td style="vertical-align:top;">:</td><td><div>None</div></td></tr><tr><td style="font-weight:bold;vertical-align:top;">auth_two_factor_enabled</td><td style="vertical-align:top;">:</td><td><div>False</div></td></tr><tr><td style="font-weight:bold;vertical-align:top;">auth_two_factor_tries_left</td><td style="vertical-align:top;">:</td><td><div>3</div></td></tr><tr><td style="font-weight:bold;vertical-align:top;">auth_two_factor_user</td><td style="vertical-align:top;">:</td><td><div>None</div></td></tr><tr><td style="font-weight:bold;vertical-align:top;">flash</td><td style="vertical-align:top;">:</td><td><div>None</div></td></tr></table></div>'
tRp246
sS'etype'
p247
S"<class 'sqlite3.IntegrityError'>"
p248
sS'date'
p249
S'Sun Feb 19 18:13:57 2017'
p250
sS'response'
p251
g61
(S's\xa3\x18\x00\x00<div><table><tr><td style="font-weight:bold;vertical-align:top;">body</td><td style="vertical-align:top;">:</td><td><div>&lt;cStringIO.StringO object at 0x7fd16c2c8110&gt;</div></td></tr><tr><td style="font-weight:bold;vertical-align:top;">cookies</td><td style="vertical-align:top;">:</td><td><div><table><tr><td style="font-weight:bold;vertical-align:top;">session_id_prueba1</td><td style="vertical-align:top;">:</td><td><div>127.0.0.1-09d72392-1c58-46b2-813f-7842a2efa3c0<table><tr><td style="font-weight:bold;vertical-align:top;">comment</td><td style="vertical-align:top;">:</td><td><div></div></td></tr><tr><td style="font-weight:bold;vertical-align:top;">domain</td><td style="vertical-align:top;">:</td><td><div></div></td></tr><tr><td style="font-weight:bold;vertical-align:top;">expires</td><td style="vertical-align:top;">:</td><td><div></div></td></tr><tr><td style="font-weight:bold;vertical-align:top;">httponly</td><td style="vertical-align:top;">:</td><td><div></div></td></tr><tr><td style="font-weight:bold;vertical-align:top;">max-age</td><td style="vertical-align:top;">:</td><td><div></div></td></tr><tr><td style="font-weight:bold;vertical-align:top;">path</td><td style="vertical-align:top;">:</td><td><div>/</div></td></tr><tr><td style="font-weight:bold;vertical-align:top;">secure</td><td style="vertical-align:top;">:</td><td><div></div></td></tr><tr><td style="font-weight:bold;vertical-align:top;">version</td><td style="vertical-align:top;">:</td><td><div></div></td></tr></table></div></td></tr></table></div></td></tr><tr><td style="font-weight:bold;vertical-align:top;">delimiters</td><td style="vertical-align:top;">:</td><td><div><table><tr><td><div>{{</div></td></tr><tr><td><div>}}</div></td></tr></table></div></td></tr><tr><td style="font-weight:bold;vertical-align:top;">description</td><td style="vertical-align:top;">:</td><td><div>DRIC</div></td></tr><tr><td style="font-weight:bold;vertical-align:top;">files</td><td style="vertical-align:top;">:</td><td><div><table></table></div></td></tr><tr><td style="font-weight:bold;vertical-align:top;">flash</td><td style="vertical-align:top;">:</td><td><div></div></td></tr><tr><td style="font-weight:bold;vertical-align:top;">form_label_separator</td><td style="vertical-align:top;">:</td><td><div>: </div></td></tr><tr><td style="font-weight:bold;vertical-align:top;">formstyle</td><td style="vertical-align:top;">:</td><td><div>table3cols</div></td></tr><tr><td style="font-weight:bold;vertical-align:top;">generic_patterns</td><td style="vertical-align:top;">:</td><td><div><table><tr><td><div>*</div></td></tr></table></div></td></tr><tr><td style="font-weight:bold;vertical-align:top;">headers</td><td style="vertical-align:top;">:</td><td><div><table><tr><td style="font-weight:bold;vertical-align:top;">X-Powered-By</td><td style="vertical-align:top;">:</td><td><div>web2py</div></td></tr></table></div></td></tr><tr><td style="font-weight:bold;vertical-align:top;">menu</td><td style="vertical-align:top;">:</td><td><div><table></table></div></td></tr><tr><td style="font-weight:bold;vertical-align:top;">meta</td><td style="vertical-align:top;">:</td><td><div><table></table></div></td></tr><tr><td style="font-weight:bold;vertical-align:top;">models_to_run</td><td style="vertical-align:top;">:</td><td><div><table><tr><td><div>^\\w+\\.py$</div></td></tr><tr><td><div>^default/\\w+\\.py$</div></td></tr><tr><td><div>^default/user/\\w+\\.py$</div></td></tr></table></div></td></tr><tr><td style="font-weight:bold;vertical-align:top;">postprocessing</td><td style="vertical-align:top;">:</td><td><div><table></table></div></td></tr><tr><td style="font-weight:bold;vertical-align:top;">session_client</td><td style="vertical-align:top;">:</td><td><div>127.0.0.1</div></td></tr><tr><td style="font-weight:bold;vertical-align:top;">session_cookie_compression_level</td><td style="vertical-align:top;">:</td><td><div>None</div></td></tr><tr><td style="font-weight:bold;vertical-align:top;">session_cookie_expires</td><td style="vertical-align:top;">:</td><td><div>None</div></td></tr><tr><td style="font-weight:bold;vertical-align:top;">session_data_name</td><td style="vertical-align:top;">:</td><td><div>session_data_prueba1</div></td></tr><tr><td style="font-weight:bold;vertical-align:top;">session_file</td><td style="vertical-align:top;">:</td><td><div>&lt;open file &#x27;/home/julio/Downloads/SIGPIE-Presentacion1/applications/prueba1/sessions/048/155/127.0.0.1-09d72392-1c58-46b2-813f-7842a2efa3c0&#x27;, mode &#x27;rb+&#x27; at 0x7fd16c3e0780&gt;</div></td></tr><tr><td style="font-weight:bold;vertical-align:top;">session_filename</td><td style="vertical-align:top;">:</td><td><div>/home/julio/Downloads/SIGPIE-Presentacion1/applications/prueba1/sessions/127.0.0.1-09d72392-1c58-46b2-813f-7842a2efa3c0</div></td></tr><tr><td style="font-weight:bold;vertical-align:top;">session_hash</td><td style="vertical-align:top;">:</td><td><div>0fc35612bb912364b7ccc2066dfa3f7a</div></td></tr><tr><td style="font-weight:bold;vertical-align:top;">session_id</td><td style="vertical-align:top;">:</td><td><div>127.0.0.1-09d72392-1c58-46b2-813f-7842a2efa3c0</div></td></tr><tr><td style="font-weight:bold;vertical-align:top;">session_id_name</td><td style="vertical-align:top;">:</td><td><div>session_id_prueba1</div></td></tr><tr><td style="font-weight:bold;vertical-align:top;">session_locked</td><td style="vertical-align:top;">:</td><td><div>True</div></td></tr><tr><td style="font-weight:bold;vertical-align:top;">session_masterapp</td><td style="vertical-align:top;">:</td><td><div>prueba1</div></td></tr><tr><td style="font-weight:bold;vertical-align:top;">session_new</td><td style="vertical-align:top;">:</td><td><div>False</div></td></tr><tr><td style="font-weight:bold;vertical-align:top;">session_storage_type</td><td style="vertical-align:top;">:</td><td><div>file</div></td></tr><tr><td style="font-weight:bold;vertical-align:top;">status</td><td style="vertical-align:top;">:</td><td><div>200</div></td></tr><tr><td style="font-weight:bold;vertical-align:top;">title</td><td style="vertical-align:top;">:</td><td><div>DRIC Internacional</div></td></tr><tr><td style="font-weight:bold;vertical-align:top;">view</td><td style="vertical-align:top;">:</td><td><div>default/user.html</div></td></tr></table></div>'
tRp252
sS'locals'
p253
(dp254
S'query'
p255
S'"INSERT INTO auth_event(origin,time_stamp,client_...-19 18:13:57\',\'127.0.0.1\',2,\'User 2 Logged-out\');"'
p256
sS'self'
p257
S'<pydal.adapters.sqlite.SQLiteAdapter object>'
p258
sS'e'
S"IntegrityError('FOREIGN KEY constraint failed',)"
p259
sS'fields'
p260
S"[(<pydal.objects.Field object>, 'auth'), (<pydal.objects.Field object>, datetime.datetime(2017, 2, 19, 18, 13, 57, 575955)), (<pydal.objects.Field object>, '127.0.0.1'), (<pydal.objects.Field object>, 2L), (<pydal.objects.Field object>, 'User 2 Logged-out')]"
p261
sS'table'
p262
S'<Table auth_event (id, time_stamp, client_ip, user_id, origin, description)>'
p263
sssS'traceback'
p264
S'Traceback (most recent call last):\n  File "/home/julio/Downloads/SIGPIE-Presentacion1/gluon/restricted.py", line 227, in restricted\n    exec ccode in environment\n  File "/home/julio/Downloads/SIGPIE-Presentacion1/applications/prueba1/views/default/user.html", line 23, in <module>\n    -moz-box-sizing: border-box;\n  File "/home/julio/Downloads/SIGPIE-Presentacion1/gluon/tools.py", line 1941, in __call__\n    return getattr(self, args[0])()\n  File "/home/julio/Downloads/SIGPIE-Presentacion1/gluon/tools.py", line 3235, in logout\n    self.log_event(log, self.user)\n  File "/home/julio/Downloads/SIGPIE-Presentacion1/gluon/tools.py", line 2530, in log_event\n    self.table_event().insert(description=str(description % vars), origin=origin, user_id=user_id)\n  File "/home/julio/Downloads/SIGPIE-Presentacion1/gluon/packages/dal/pydal/objects.py", line 726, in insert\n    ret = self._db._adapter.insert(self, self._listify(fields))\n  File "/home/julio/Downloads/SIGPIE-Presentacion1/gluon/packages/dal/pydal/adapters/base.py", line 746, in insert\n    raise e\nIntegrityError: FOREIGN KEY constraint failed\n'
p265
s.